ccopy_reg
_reconstructor
p0
(cmatplotlib.figure
Figure
p1
c__builtin__
object
p2
Ntp3
Rp4
(dp5
S'_label'
p6
V
p7
sS'_constrained_layout_pads'
p8
(dp9
Vw_pad
p10
F0.04167
sVwspace
p11
F0.02
sVh_pad
p12
F0.04167
sVhspace
p13
F0.02
ssS'figure'
p14
NsS'_visible'
p15
I01
sS'stale_callback'
p16
NsS'_rasterized'
p17
NsS'texts'
p18
(lp19
sS'_hold'
p20
I01
sS'artists'
p21
(lp22
sS'_path_effects'
p23
(lp24
sS'frameon'
p25
I01
sS'_clipon'
p26
I01
sV__mpl_version__
p27
S'2.2.4'
p28
sS'_clippath'
p29
NsS'_sketch'
p30
NsS'_contains'
p31
NsS'_tight_parameters'
p32
(dp33
sS'_oid'
p34
I0
sS'_mouseover'
p35
I00
sS'_animated'
p36
I00
sS'_propobservers'
p37
(dp38
sS'eventson'
p39
I00
sS'_picker'
p40
NsS'_remove_method'
p41
NsS'_agg_filter'
p42
NsS'clipbox'
p43
NsV_restore_to_pylab
p44
I01
sS'images'
p45
(lp46
sS'bbox_inches'
p47
g0
(cmatplotlib.transforms
Bbox
p48
g2
Ntp49
Rp50
(dp51
S'_invalid'
p52
I0
sS'_minpos'
p53
cnumpy.core.multiarray
_reconstruct
p54
(cnumpy
ndarray
p55
(I0
tp56
S'b'
p57
tp58
Rp59
(I1
(I2
tp60
cnumpy
dtype
p61
(S'f8'
p62
I0
I1
tp63
Rp64
(I3
S'<'
p65
NNNI-1
I-1
I0
tp66
bI00
S'\x00\x00\x00\x00\x00\x00\xf0\x7f\x00\x00\x00\x00\x00\x00\xf0\x7f'
p67
tp68
bsS'_parents'
p69
(dp70
I140024311687056
g0
(cmatplotlib.transforms
TransformedBbox
p71
g2
Ntp72
Rp73
(dp74
g52
I0
sS'_bbox'
p75
g50
sS'_transform'
p76
g0
(cmatplotlib.transforms
Affine2D
p77
g2
Ntp78
Rp79
(dp80
g52
I0
sS'_inverted'
p81
NsS'_mtx'
p82
g54
(g55
(I0
tp83
g57
tp84
Rp85
(I1
(I3
I3
tp86
g64
I00
S'\x00\x00\x00\x00\x00\x00Y@\x00\x00\x00\x00\x00\x00\x00\x00\x00\x00\x00\x00\x00\x00\x00\x00\x00\x00\x00\x00\x00\x00\x00\x00\x00\x00\x00\x00\x00\x00Y@\x00\x00\x00\x00\x00\x00\x00\x00\x00\x00\x00\x00\x00\x00\x00\x00\x00\x00\x00\x00\x00\x00\x00\x00\x00\x00\x00\x00\x00\x00\xf0?'
p87
tp88
bsS'_shorthand_name'
p89
g7
sg69
(dp90
I140024305368400
g0
(cmatplotlib.transforms
ScaledTranslation
p91
g2
Ntp92
Rp93
(dp94
g52
I1
sg82
NsS'_scale_trans'
p95
g79
sg81
NsS'_t'
p96
(I0
F-0.09722222222222222
tp97
sg89
g7
sg69
(dp98
I140024305368464
g0
(cmatplotlib.transforms
CompositeGenericTransform
p99
g2
Ntp100
Rp101
(dp102
g52
I1
sS'input_dims'
p103
I2
sS'_a'
p104
g0
(cmatplotlib.transforms
BlendedGenericTransform
p105
g2
Ntp106
Rp107
(dp108
g52
I2
sS'_y'
p109
g0
(cmatplotlib.transforms
BboxTransformTo
p110
g2
Ntp111
Rp112
(dp113
g52
I1
sg82
Nsg81
NsS'_boxout'
p114
g0
(g71
g2
Ntp115
Rp116
(dp117
g52
I1
sg75
g0
(g48
g2
Ntp118
Rp119
(dp120
g52
I0
sg53
g54
(g55
(I0
tp121
g57
tp122
Rp123
(I1
(I2
tp124
g64
I00
S'\x00\x00\x00\x00\x00\x00\xf0\x7f\x00\x00\x00\x00\x00\x00\xf0\x7f'
p125
tp126
bsg69
(dp127
I140024305260176
g116
ssS'_points_orig'
p128
g54
(g55
(I0
tp129
g57
tp130
Rp131
(I1
(I2
I2
tp132
g64
I00
S'\x00\x00\x00\x00\x00\x00\xc0?(\\\x8f\xc2\xf5(\xbc?\xcd\xcc\xcc\xcc\xcc\xcc\xec?)\\\x8f\xc2\xf5(\xec?'
p133
tp134
bsS'_points'
p135
g54
(g55
(I0
tp136
g57
tp137
Rp138
(I1
(I2
I2
tp139
g64
I00
S'\x00\x00\x00\x00\x00\x00\xc0?(\\\x8f\xc2\xf5(\xbc?\xcd\xcc\xcc\xcc\xcc\xcc\xec?)\\\x8f\xc2\xf5(\xec?'
p140
tp141
bsS'_ignore'
p142
I01
sg89
g7
sbsg76
g0
(g110
g2
Ntp143
Rp144
(dp145
g52
I1
sg82
Nsg81
Nsg114
g73
sg69
(dp146
I140024305260176
g116
ssg89
g7
sbsg135
Nsg69
(dp147
I140024305260496
g112
ssg89
g7
sbsg69
(dp148
I140024257274832
g0
(g99
g2
Ntp149
Rp150
(dp151
g52
I1
sg103
I2
sg104
g0
(g99
g2
Ntp152
Rp153
(dp154
g52
I1
sg103
I2
sg104
g0
(g110
g2
Ntp155
Rp156
(dp157
g52
I1
sg82
Nsg81
Nsg114
g0
(g48
g2
Ntp158
Rp159
(dp160
g52
I1
sg53
g54
(g55
(I0
tp161
g57
tp162
Rp163
(I1
(I2
tp164
g64
I00
S'\x00\x00\x00\x00\x00\x00\xf0\x7f\x00\x00\x00\x00\x00\x00\xf0\x7f'
p165
tp166
bsg69
(dp167
I140024257274704
g156
ssg128
g54
(g55
(I0
tp168
g57
tp169
Rp170
(I1
(I2
I2
tp171
g64
I00
S'\x00\x00\x00\x00\x00\x00\x00\x00\x00\x00\x00\x00\x00\x00\x00\x00\x00\x00\x00\x00\x00\x00\xf0?\x00\x00\x00\x00\x00\x00\xf0?'
p172
tp173
bsg135
g54
(g55
(I0
tp174
g57
tp175
Rp176
(I1
(I2
I2
tp177
g64
I00
S'\x00\x00\x00\x00\x00\x00\x00\x00\x00\x00\x00\x00\x00\x00\x00\x00\x00\x00\x00\x00\x00\x00\xf0?\x00\x00\x00\x00\x00\x00\xf0?'
p178
tp179
bsg142
I01
sg89
g7
sbsg69
(dp180
I140024257274768
g153
ssg89
g7
sbsS'output_dims'
p181
I2
sS'_b'
p182
g0
(g77
g2
Ntp183
Rp184
(dp185
g52
I2
sg81
Nsg82
g54
(g55
(I0
tp186
g57
tp187
Rp188
(I1
(I3
I3
tp189
g64
I00
S'\x00\x00\x00\x00\x00\x00\xf0?\x00\x00\x00\x00\x00\x00\x00\x00\x00\x00\x00\x00\x00\x00\x00\x00\x00\x00\x00\x00\x00\x00\x00\x00\x00\x00\x00\x00\x00\x00\xf0?\x00\x00\x00\x00\x00\x00\x00\x00\x00\x00\x00\x00\x00\x00\x00\x00\x00\x00\x00\x00\x00\x00\x00\x00\x00\x00\x00\x00\x00\x00\xf0?'
p190
tp191
bsg89
g7
sg69
(dp192
I140024257274768
g153
ssbsg69
(dp193
I140024257274832
g150
ssg89
g7
sbsg181
I2
sg182
g112
sg69
(dp194
I140024257274896
g0
(g71
g2
Ntp195
Rp196
(dp197
g52
I1
sg75
g0
(g48
g2
Ntp198
Rp199
(dp200
g52
I1
sg53
g54
(g55
(I0
tp201
g57
tp202
Rp203
(I1
(I2
tp204
g64
I00
S'\x00\x00\x00\x00\x00\x00\xf0\x7f\x00\x00\x00\x00\x00\x00\xf0\x7f'
p205
tp206
bsg69
(dp207
I140024257274896
g196
ssg128
g54
(g55
(I0
tp208
g57
tp209
Rp210
(I1
(I2
I2
tp211
g64
I00
S'\x00\x00\x00\x00\x00\x00\x00\x00\x00\x00\x00\x00\x00\x00\x00\x00\x00\x00\x00\x00\x00\x00\xf0?\x00\x00\x00\x00\x00\x00\xf0?'
p212
tp213
bsg135
g54
(g55
(I0
tp214
g57
tp215
Rp216
(I1
(I2
I2
tp217
g64
I00
S'\x00\x00\x00\x00\x00\x00\x00\x00\x00\x00\x00\x00\x00\x00\x00\x00\x00\x00\x00\x00\x00\x00\xf0?\x00\x00\x00\x00\x00\x00\xf0?'
p218
tp219
bsg142
I01
sg89
g7
sbsg76
g150
sg135
Nsg69
(dp220
sg89
g7
sbssg89
g7
sbsI140024257217424
g0
(g99
g2
Ntp221
Rp222
(dp223
g52
I1
sg103
I2
sg104
g0
(g99
g2
Ntp224
Rp225
(dp226
g52
I1
sg103
I2
sg104
g0
(g110
g2
Ntp227
Rp228
(dp229
g52
I1
sg82
Nsg81
Nsg114
g0
(g48
g2
Ntp230
Rp231
(dp232
g52
I1
sg53
g54
(g55
(I0
tp233
g57
tp234
Rp235
(I1
(I2
tp236
g64
I00
S'\x00\x00\x00\x00\x00\x00\xf0\x7f\x00\x00\x00\x00\x00\x00\xf0\x7f'
p237
tp238
bsg69
(dp239
I140024257217360
g228
ssg128
g54
(g55
(I0
tp240
g57
tp241
Rp242
(I1
(I2
I2
tp243
g64
I00
S'\x00\x00\x00\x00\x00\x00\x00\x00\x00\x00\x00\x00\x00\x00\x00\x00\x00\x00\x00\x00\x00\x00\xf0?\x00\x00\x00\x00\x00\x00\xf0?'
p244
tp245
bsg135
g54
(g55
(I0
tp246
g57
tp247
Rp248
(I1
(I2
I2
tp249
g64
I00
S'\x00\x00\x00\x00\x00\x00\x00\x00\x00\x00\x00\x00\x00\x00\x00\x00\x00\x00\x00\x00\x00\x00\xf0?\x00\x00\x00\x00\x00\x00\xf0?'
p250
tp251
bsg142
I01
sg89
g7
sbsg69
(dp252
I140024257217104
g225
ssg89
g7
sbsg181
I2
sg182
g0
(g77
g2
Ntp253
Rp254
(dp255
g52
I2
sg81
Nsg82
g54
(g55
(I0
tp256
g57
tp257
Rp258
(I1
(I3
I3
tp259
g64
I00
S'\x00\x00\x00\x00\x00\x00\xf0?\x00\x00\x00\x00\x00\x00\x00\x00\x00\x00\x00\x00\x00\x00\x00\x00\x00\x00\x00\x00\x00\x00\x00\x00\x00\x00\x00\x00\x00\x00\xf0?\x00\x00\x00\x00\x00\x00\x00\x00\x00\x00\x00\x00\x00\x00\x00\x00\x00\x00\x00\x00\x00\x00\x00\x00\x00\x00\x00\x00\x00\x00\xf0?'
p260
tp261
bsg89
g7
sg69
(dp262
I140024257217104
g225
ssbsg69
(dp263
I140024257217424
g222
ssg89
g7
sbsg181
I2
sg182
g112
sg69
(dp264
I140024257217488
g0
(g71
g2
Ntp265
Rp266
(dp267
g52
I1
sg75
g0
(g48
g2
Ntp268
Rp269
(dp270
g52
I1
sg53
g54
(g55
(I0
tp271
g57
tp272
Rp273
(I1
(I2
tp274
g64
I00
S'\x00\x00\x00\x00\x00\x00\xf0\x7f\x00\x00\x00\x00\x00\x00\xf0\x7f'
p275
tp276
bsg69
(dp277
I140024257217488
g266
ssg128
g54
(g55
(I0
tp278
g57
tp279
Rp280
(I1
(I2
I2
tp281
g64
I00
S'\x00\x00\x00\x00\x00\x00\x00\x00\x00\x00\x00\x00\x00\x00\x00\x00\x00\x00\x00\x00\x00\x00\xf0?\x00\x00\x00\x00\x00\x00\xf0?'
p282
tp283
bsg135
g54
(g55
(I0
tp284
g57
tp285
Rp286
(I1
(I2
I2
tp287
g64
I00
S'\x00\x00\x00\x00\x00\x00\x00\x00\x00\x00\x00\x00\x00\x00\x00\x00\x00\x00\x00\x00\x00\x00\xf0?\x00\x00\x00\x00\x00\x00\xf0?'
p288
tp289
bsg142
I01
sg89
g7
sbsg76
g222
sg135
Nsg69
(dp290
sg89
g7
sbssg89
g7
sbsI140024257323088
g0
(g99
g2
Ntp291
Rp292
(dp293
g52
I1
sg103
I2
sg104
g0
(g99
g2
Ntp294
Rp295
(dp296
g52
I1
sg103
I2
sg104
g0
(g110
g2
Ntp297
Rp298
(dp299
g52
I1
sg82
Nsg81
Nsg114
g0
(g48
g2
Ntp300
Rp301
(dp302
g52
I1
sg53
g54
(g55
(I0
tp303
g57
tp304
Rp305
(I1
(I2
tp306
g64
I00
S'\x00\x00\x00\x00\x00\x00\xf0\x7f\x00\x00\x00\x00\x00\x00\xf0\x7f'
p307
tp308
bsg69
(dp309
I140024257277840
g298
ssg128
g54
(g55
(I0
tp310
g57
tp311
Rp312
(I1
(I2
I2
tp313
g64
I00
S'\x00\x00\x00\x00\x00\x00\x00\x00\x00\x00\x00\x00\x00\x00\x00\x00\x00\x00\x00\x00\x00\x00\xf0?\x00\x00\x00\x00\x00\x00\xf0?'
p314
tp315
bsg135
g54
(g55
(I0
tp316
g57
tp317
Rp318
(I1
(I2
I2
tp319
g64
I00
S'\x00\x00\x00\x00\x00\x00\x00\x00\x00\x00\x00\x00\x00\x00\x00\x00\x00\x00\x00\x00\x00\x00\xf0?\x00\x00\x00\x00\x00\x00\xf0?'
p320
tp321
bsg142
I01
sg89
g7
sbsg69
(dp322
I140024257277904
g295
ssg89
g7
sbsg181
I2
sg182
g0
(g77
g2
Ntp323
Rp324
(dp325
g52
I2
sg81
Nsg82
g54
(g55
(I0
tp326
g57
tp327
Rp328
(I1
(I3
I3
tp329
g64
I00
S'\x00\x00\x00\x00\x00\x00\xf0?\x00\x00\x00\x00\x00\x00\x00\x00\x00\x00\x00\x00\x00\x00\x00\x00\x00\x00\x00\x00\x00\x00\x00\x00\x00\x00\x00\x00\x00\x00\xf0?\x00\x00\x00\x00\x00\x00\x00\x00\x00\x00\x00\x00\x00\x00\x00\x00\x00\x00\x00\x00\x00\x00\x00\x00\x00\x00\x00\x00\x00\x00\xf0?'
p330
tp331
bsg89
g7
sg69
(dp332
I140024257277904
g295
ssbsg69
(dp333
I140024257323088
g292
ssg89
g7
sbsg181
I2
sg182
g112
sg69
(dp334
I140024257323152
g0
(g71
g2
Ntp335
Rp336
(dp337
g52
I1
sg75
g0
(g48
g2
Ntp338
Rp339
(dp340
g52
I1
sg53
g54
(g55
(I0
tp341
g57
tp342
Rp343
(I1
(I2
tp344
g64
I00
S'\x00\x00\x00\x00\x00\x00\xf0\x7f\x00\x00\x00\x00\x00\x00\xf0\x7f'
p345
tp346
bsg69
(dp347
I140024257323152
g336
ssg128
g54
(g55
(I0
tp348
g57
tp349
Rp350
(I1
(I2
I2
tp351
g64
I00
S'\x00\x00\x00\x00\x00\x00\x00\x00\x00\x00\x00\x00\x00\x00\x00\x00\x00\x00\x00\x00\x00\x00\xf0?\x00\x00\x00\x00\x00\x00\xf0?'
p352
tp353
bsg135
g54
(g55
(I0
tp354
g57
tp355
Rp356
(I1
(I2
I2
tp357
g64
I00
S'\x00\x00\x00\x00\x00\x00\x00\x00\x00\x00\x00\x00\x00\x00\x00\x00\x00\x00\x00\x00\x00\x00\xf0?\x00\x00\x00\x00\x00\x00\xf0?'
p358
tp359
bsg142
I01
sg89
g7
sbsg76
g292
sg135
Nsg69
(dp360
sg89
g7
sbssg89
g7
sbsI140024257324432
g0
(g99
g2
Ntp361
Rp362
(dp363
g52
I1
sg103
I2
sg104
g0
(g99
g2
Ntp364
Rp365
(dp366
g52
I1
sg103
I2
sg104
g0
(g110
g2
Ntp367
Rp368
(dp369
g52
I1
sg82
Nsg81
Nsg114
g0
(g48
g2
Ntp370
Rp371
(dp372
g52
I1
sg53
g54
(g55
(I0
tp373
g57
tp374
Rp375
(I1
(I2
tp376
g64
I00
S'\x00\x00\x00\x00\x00\x00\xf0\x7f\x00\x00\x00\x00\x00\x00\xf0\x7f'
p377
tp378
bsg69
(dp379
I140024257324304
g368
ssg128
g54
(g55
(I0
tp380
g57
tp381
Rp382
(I1
(I2
I2
tp383
g64
I00
S'\x00\x00\x00\x00\x00\x00\x00\x00\x00\x00\x00\x00\x00\x00\x00\x00\x00\x00\x00\x00\x00\x00\xf0?\x00\x00\x00\x00\x00\x00\xf0?'
p384
tp385
bsg135
g54
(g55
(I0
tp386
g57
tp387
Rp388
(I1
(I2
I2
tp389
g64
I00
S'\x00\x00\x00\x00\x00\x00\x00\x00\x00\x00\x00\x00\x00\x00\x00\x00\x00\x00\x00\x00\x00\x00\xf0?\x00\x00\x00\x00\x00\x00\xf0?'
p390
tp391
bsg142
I01
sg89
g7
sbsg69
(dp392
I140024257324368
g365
ssg89
g7
sbsg181
I2
sg182
g0
(g77
g2
Ntp393
Rp394
(dp395
g52
I2
sg81
Nsg82
g54
(g55
(I0
tp396
g57
tp397
Rp398
(I1
(I3
I3
tp399
g64
I00
S'\x00\x00\x00\x00\x00\x00\xf0?\x00\x00\x00\x00\x00\x00\x00\x00\x00\x00\x00\x00\x00\x00\x00\x00\x00\x00\x00\x00\x00\x00\x00\x00\x00\x00\x00\x00\x00\x00\xf0?\x00\x00\x00\x00\x00\x00\x00\x00\x00\x00\x00\x00\x00\x00\x00\x00\x00\x00\x00\x00\x00\x00\x00\x00\x00\x00\x00\x00\x00\x00\xf0?'
p400
tp401
bsg89
g7
sg69
(dp402
I140024257324368
g365
ssbsg69
(dp403
I140024257324432
g362
ssg89
g7
sbsg181
I2
sg182
g112
sg69
(dp404
I140024257324496
g0
(g71
g2
Ntp405
Rp406
(dp407
g52
I1
sg75
g0
(g48
g2
Ntp408
Rp409
(dp410
g52
I1
sg53
g54
(g55
(I0
tp411
g57
tp412
Rp413
(I1
(I2
tp414
g64
I00
S'\x00\x00\x00\x00\x00\x00\xf0\x7f\x00\x00\x00\x00\x00\x00\xf0\x7f'
p415
tp416
bsg69
(dp417
I140024257324496
g406
ssg128
g54
(g55
(I0
tp418
g57
tp419
Rp420
(I1
(I2
I2
tp421
g64
I00
S'\x00\x00\x00\x00\x00\x00\x00\x00\x00\x00\x00\x00\x00\x00\x00\x00\x00\x00\x00\x00\x00\x00\xf0?\x00\x00\x00\x00\x00\x00\xf0?'
p422
tp423
bsg135
g54
(g55
(I0
tp424
g57
tp425
Rp426
(I1
(I2
I2
tp427
g64
I00
S'\x00\x00\x00\x00\x00\x00\x00\x00\x00\x00\x00\x00\x00\x00\x00\x00\x00\x00\x00\x00\x00\x00\xf0?\x00\x00\x00\x00\x00\x00\xf0?'
p428
tp429
bsg142
I01
sg89
g7
sbsg76
g362
sg135
Nsg69
(dp430
sg89
g7
sbssg89
g7
sbsI140024257277520
g0
(g99
g2
Ntp431
Rp432
(dp433
g52
I1
sg103
I2
sg104
g0
(g99
g2
Ntp434
Rp435
(dp436
g52
I1
sg103
I2
sg104
g0
(g110
g2
Ntp437
Rp438
(dp439
g52
I1
sg82
Nsg81
Nsg114
g0
(g48
g2
Ntp440
Rp441
(dp442
g52
I1
sg53
g54
(g55
(I0
tp443
g57
tp444
Rp445
(I1
(I2
tp446
g64
I00
S'\x00\x00\x00\x00\x00\x00\xf0\x7f\x00\x00\x00\x00\x00\x00\xf0\x7f'
p447
tp448
bsg69
(dp449
I140024257277392
g438
ssg128
g54
(g55
(I0
tp450
g57
tp451
Rp452
(I1
(I2
I2
tp453
g64
I00
S'\x00\x00\x00\x00\x00\x00\x00\x00\x00\x00\x00\x00\x00\x00\x00\x00\x00\x00\x00\x00\x00\x00\xf0?\x00\x00\x00\x00\x00\x00\xf0?'
p454
tp455
bsg135
g54
(g55
(I0
tp456
g57
tp457
Rp458
(I1
(I2
I2
tp459
g64
I00
S'\x00\x00\x00\x00\x00\x00\x00\x00\x00\x00\x00\x00\x00\x00\x00\x00\x00\x00\x00\x00\x00\x00\xf0?\x00\x00\x00\x00\x00\x00\xf0?'
p460
tp461
bsg142
I01
sg89
g7
sbsg69
(dp462
I140024257277456
g435
ssg89
g7
sbsg181
I2
sg182
g0
(g77
g2
Ntp463
Rp464
(dp465
g52
I2
sg81
Nsg82
g54
(g55
(I0
tp466
g57
tp467
Rp468
(I1
(I3
I3
tp469
g64
I00
S'\x00\x00\x00\x00\x00\x00\xf0?\x00\x00\x00\x00\x00\x00\x00\x00\x00\x00\x00\x00\x00\x00\x00\x00\x00\x00\x00\x00\x00\x00\x00\x00\x00\x00\x00\x00\x00\x00\xf0?\x00\x00\x00\x00\x00\x00\x00\x00\x00\x00\x00\x00\x00\x00\x00\x00\x00\x00\x00\x00\x00\x00\x00\x00\x00\x00\x00\x00\x00\x00\xf0?'
p470
tp471
bsg89
g7
sg69
(dp472
I140024257277456
g435
ssbsg69
(dp473
I140024257277520
g432
ssg89
g7
sbsg181
I2
sg182
g112
sg69
(dp474
I140024257277584
g0
(g71
g2
Ntp475
Rp476
(dp477
g52
I1
sg75
g0
(g48
g2
Ntp478
Rp479
(dp480
g52
I1
sg53
g54
(g55
(I0
tp481
g57
tp482
Rp483
(I1
(I2
tp484
g64
I00
S'\x00\x00\x00\x00\x00\x00\xf0\x7f\x00\x00\x00\x00\x00\x00\xf0\x7f'
p485
tp486
bsg69
(dp487
I140024257277584
g476
ssg128
g54
(g55
(I0
tp488
g57
tp489
Rp490
(I1
(I2
I2
tp491
g64
I00
S'\x00\x00\x00\x00\x00\x00\x00\x00\x00\x00\x00\x00\x00\x00\x00\x00\x00\x00\x00\x00\x00\x00\xf0?\x00\x00\x00\x00\x00\x00\xf0?'
p492
tp493
bsg135
g54
(g55
(I0
tp494
g57
tp495
Rp496
(I1
(I2
I2
tp497
g64
I00
S'\x00\x00\x00\x00\x00\x00\x00\x00\x00\x00\x00\x00\x00\x00\x00\x00\x00\x00\x00\x00\x00\x00\xf0?\x00\x00\x00\x00\x00\x00\xf0?'
p498
tp499
bsg142
I01
sg89
g7
sbsg76
g432
sg135
Nsg69
(dp500
sg89
g7
sbssg89
g7
sbsI140024257219728
g0
(g99
g2
Ntp501
Rp502
(dp503
g52
I1
sg103
I2
sg104
g0
(g99
g2
Ntp504
Rp505
(dp506
g52
I1
sg103
I2
sg104
g0
(g110
g2
Ntp507
Rp508
(dp509
g52
I1
sg82
Nsg81
Nsg114
g0
(g48
g2
Ntp510
Rp511
(dp512
g52
I1
sg53
g54
(g55
(I0
tp513
g57
tp514
Rp515
(I1
(I2
tp516
g64
I00
S'\x00\x00\x00\x00\x00\x00\xf0\x7f\x00\x00\x00\x00\x00\x00\xf0\x7f'
p517
tp518
bsg69
(dp519
I140024257219600
g508
ssg128
g54
(g55
(I0
tp520
g57
tp521
Rp522
(I1
(I2
I2
tp523
g64
I00
S'\x00\x00\x00\x00\x00\x00\x00\x00\x00\x00\x00\x00\x00\x00\x00\x00\x00\x00\x00\x00\x00\x00\xf0?\x00\x00\x00\x00\x00\x00\xf0?'
p524
tp525
bsg135
g54
(g55
(I0
tp526
g57
tp527
Rp528
(I1
(I2
I2
tp529
g64
I00
S'\x00\x00\x00\x00\x00\x00\x00\x00\x00\x00\x00\x00\x00\x00\x00\x00\x00\x00\x00\x00\x00\x00\xf0?\x00\x00\x00\x00\x00\x00\xf0?'
p530
tp531
bsg142
I01
sg89
g7
sbsg69
(dp532
I140024257219664
g505
ssg89
g7
sbsg181
I2
sg182
g0
(g77
g2
Ntp533
Rp534
(dp535
g52
I2
sg81
Nsg82
g54
(g55
(I0
tp536
g57
tp537
Rp538
(I1
(I3
I3
tp539
g64
I00
S'\x00\x00\x00\x00\x00\x00\xf0?\x00\x00\x00\x00\x00\x00\x00\x00\x00\x00\x00\x00\x00\x00\x00\x00\x00\x00\x00\x00\x00\x00\x00\x00\x00\x00\x00\x00\x00\x00\xf0?\x00\x00\x00\x00\x00\x00\x00\x00\x00\x00\x00\x00\x00\x00\x00\x00\x00\x00\x00\x00\x00\x00\x00\x00\x00\x00\x00\x00\x00\x00\xf0?'
p540
tp541
bsg89
g7
sg69
(dp542
I140024257219664
g505
ssbsg69
(dp543
I140024257219728
g502
ssg89
g7
sbsg181
I2
sg182
g112
sg69
(dp544
I140024257219792
g0
(g71
g2
Ntp545
Rp546
(dp547
g52
I1
sg75
g0
(g48
g2
Ntp548
Rp549
(dp550
g52
I1
sg53
g54
(g55
(I0
tp551
g57
tp552
Rp553
(I1
(I2
tp554
g64
I00
S'\x00\x00\x00\x00\x00\x00\xf0\x7f\x00\x00\x00\x00\x00\x00\xf0\x7f'
p555
tp556
bsg69
(dp557
I140024257219792
g546
ssg128
g54
(g55
(I0
tp558
g57
tp559
Rp560
(I1
(I2
I2
tp561
g64
I00
S'\x00\x00\x00\x00\x00\x00\x00\x00\x00\x00\x00\x00\x00\x00\x00\x00\x00\x00\x00\x00\x00\x00\xf0?\x00\x00\x00\x00\x00\x00\xf0?'
p562
tp563
bsg135
g54
(g55
(I0
tp564
g57
tp565
Rp566
(I1
(I2
I2
tp567
g64
I00
S'\x00\x00\x00\x00\x00\x00\x00\x00\x00\x00\x00\x00\x00\x00\x00\x00\x00\x00\x00\x00\x00\x00\xf0?\x00\x00\x00\x00\x00\x00\xf0?'
p568
tp569
bsg142
I01
sg89
g7
sbsg76
g502
sg135
Nsg69
(dp570
sg89
g7
sbssg89
g7
sbsI140024257323984
g0
(g99
g2
Ntp571
Rp572
(dp573
g52
I1
sg103
I2
sg104
g0
(g99
g2
Ntp574
Rp575
(dp576
g52
I1
sg103
I2
sg104
g0
(g110
g2
Ntp577
Rp578
(dp579
g52
I1
sg82
Nsg81
Nsg114
g0
(g48
g2
Ntp580
Rp581
(dp582
g52
I1
sg53
g54
(g55
(I0
tp583
g57
tp584
Rp585
(I1
(I2
tp586
g64
I00
S'\x00\x00\x00\x00\x00\x00\xf0\x7f\x00\x00\x00\x00\x00\x00\xf0\x7f'
p587
tp588
bsg69
(dp589
I140024257323856
g578
ssg128
g54
(g55
(I0
tp590
g57
tp591
Rp592
(I1
(I2
I2
tp593
g64
I00
S'\x00\x00\x00\x00\x00\x00\x00\x00\x00\x00\x00\x00\x00\x00\x00\x00\x00\x00\x00\x00\x00\x00\xf0?\x00\x00\x00\x00\x00\x00\xf0?'
p594
tp595
bsg135
g54
(g55
(I0
tp596
g57
tp597
Rp598
(I1
(I2
I2
tp599
g64
I00
S'\x00\x00\x00\x00\x00\x00\x00\x00\x00\x00\x00\x00\x00\x00\x00\x00\x00\x00\x00\x00\x00\x00\xf0?\x00\x00\x00\x00\x00\x00\xf0?'
p600
tp601
bsg142
I01
sg89
g7
sbsg69
(dp602
I140024257323920
g575
ssg89
g7
sbsg181
I2
sg182
g0
(g77
g2
Ntp603
Rp604
(dp605
g52
I2
sg81
Nsg82
g54
(g55
(I0
tp606
g57
tp607
Rp608
(I1
(I3
I3
tp609
g64
I00
S'\x00\x00\x00\x00\x00\x00\xf0?\x00\x00\x00\x00\x00\x00\x00\x00\x00\x00\x00\x00\x00\x00\x00\x00\x00\x00\x00\x00\x00\x00\x00\x00\x00\x00\x00\x00\x00\x00\xf0?\x00\x00\x00\x00\x00\x00\x00\x00\x00\x00\x00\x00\x00\x00\x00\x00\x00\x00\x00\x00\x00\x00\x00\x00\x00\x00\x00\x00\x00\x00\xf0?'
p610
tp611
bsg89
g7
sg69
(dp612
I140024257323920
g575
ssbsg69
(dp613
I140024257323984
g572
ssg89
g7
sbsg181
I2
sg182
g112
sg69
(dp614
I140024257324048
g0
(g71
g2
Ntp615
Rp616
(dp617
g52
I1
sg75
g0
(g48
g2
Ntp618
Rp619
(dp620
g52
I1
sg53
g54
(g55
(I0
tp621
g57
tp622
Rp623
(I1
(I2
tp624
g64
I00
S'\x00\x00\x00\x00\x00\x00\xf0\x7f\x00\x00\x00\x00\x00\x00\xf0\x7f'
p625
tp626
bsg69
(dp627
I140024257324048
g616
ssg128
g54
(g55
(I0
tp628
g57
tp629
Rp630
(I1
(I2
I2
tp631
g64
I00
S'\x00\x00\x00\x00\x00\x00\x00\x00\x00\x00\x00\x00\x00\x00\x00\x00\x00\x00\x00\x00\x00\x00\xf0?\x00\x00\x00\x00\x00\x00\xf0?'
p632
tp633
bsg135
g54
(g55
(I0
tp634
g57
tp635
Rp636
(I1
(I2
I2
tp637
g64
I00
S'\x00\x00\x00\x00\x00\x00\x00\x00\x00\x00\x00\x00\x00\x00\x00\x00\x00\x00\x00\x00\x00\x00\xf0?\x00\x00\x00\x00\x00\x00\xf0?'
p638
tp639
bsg142
I01
sg89
g7
sbsg76
g572
sg135
Nsg69
(dp640
sg89
g7
sbssg89
g7
sbsI140024257274384
g0
(g99
g2
Ntp641
Rp642
(dp643
g52
I1
sg103
I2
sg104
g0
(g99
g2
Ntp644
Rp645
(dp646
g52
I1
sg103
I2
sg104
g0
(g110
g2
Ntp647
Rp648
(dp649
g52
I1
sg82
Nsg81
Nsg114
g0
(g48
g2
Ntp650
Rp651
(dp652
g52
I1
sg53
g54
(g55
(I0
tp653
g57
tp654
Rp655
(I1
(I2
tp656
g64
I00
S'\x00\x00\x00\x00\x00\x00\xf0\x7f\x00\x00\x00\x00\x00\x00\xf0\x7f'
p657
tp658
bsg69
(dp659
I140024257274256
g648
ssg128
g54
(g55
(I0
tp660
g57
tp661
Rp662
(I1
(I2
I2
tp663
g64
I00
S'\x00\x00\x00\x00\x00\x00\x00\x00\x00\x00\x00\x00\x00\x00\x00\x00\x00\x00\x00\x00\x00\x00\xf0?\x00\x00\x00\x00\x00\x00\xf0?'
p664
tp665
bsg135
g54
(g55
(I0
tp666
g57
tp667
Rp668
(I1
(I2
I2
tp669
g64
I00
S'\x00\x00\x00\x00\x00\x00\x00\x00\x00\x00\x00\x00\x00\x00\x00\x00\x00\x00\x00\x00\x00\x00\xf0?\x00\x00\x00\x00\x00\x00\xf0?'
p670
tp671
bsg142
I01
sg89
g7
sbsg69
(dp672
I140024257274320
g645
ssg89
g7
sbsg181
I2
sg182
g0
(g77
g2
Ntp673
Rp674
(dp675
g52
I2
sg81
Nsg82
g54
(g55
(I0
tp676
g57
tp677
Rp678
(I1
(I3
I3
tp679
g64
I00
S'\x00\x00\x00\x00\x00\x00\xf0?\x00\x00\x00\x00\x00\x00\x00\x00\x00\x00\x00\x00\x00\x00\x00\x00\x00\x00\x00\x00\x00\x00\x00\x00\x00\x00\x00\x00\x00\x00\xf0?\x00\x00\x00\x00\x00\x00\x00\x00\x00\x00\x00\x00\x00\x00\x00\x00\x00\x00\x00\x00\x00\x00\x00\x00\x00\x00\x00\x00\x00\x00\xf0?'
p680
tp681
bsg89
g7
sg69
(dp682
I140024257274320
g645
ssbsg69
(dp683
I140024257274384
g642
ssg89
g7
sbsg181
I2
sg182
g112
sg69
(dp684
I140024257274448
g0
(g71
g2
Ntp685
Rp686
(dp687
g52
I1
sg75
g0
(g48
g2
Ntp688
Rp689
(dp690
g52
I1
sg53
g54
(g55
(I0
tp691
g57
tp692
Rp693
(I1
(I2
tp694
g64
I00
S'\x00\x00\x00\x00\x00\x00\xf0\x7f\x00\x00\x00\x00\x00\x00\xf0\x7f'
p695
tp696
bsg69
(dp697
I140024257274448
g686
ssg128
g54
(g55
(I0
tp698
g57
tp699
Rp700
(I1
(I2
I2
tp701
g64
I00
S'\x00\x00\x00\x00\x00\x00\x00\x00\x00\x00\x00\x00\x00\x00\x00\x00\x00\x00\x00\x00\x00\x00\xf0?\x00\x00\x00\x00\x00\x00\xf0?'
p702
tp703
bsg135
g54
(g55
(I0
tp704
g57
tp705
Rp706
(I1
(I2
I2
tp707
g64
I00
S'\x00\x00\x00\x00\x00\x00\x00\x00\x00\x00\x00\x00\x00\x00\x00\x00\x00\x00\x00\x00\x00\x00\xf0?\x00\x00\x00\x00\x00\x00\xf0?'
p708
tp709
bsg142
I01
sg89
g7
sbsg76
g642
sg135
Nsg69
(dp710
sg89
g7
sbssg89
g7
sbsI140024257275216
g0
(g99
g2
Ntp711
Rp712
(dp713
g52
I1
sg103
I2
sg104
g0
(g99
g2
Ntp714
Rp715
(dp716
g52
I1
sg103
I2
sg104
g0
(g110
g2
Ntp717
Rp718
(dp719
g52
I1
sg82
Nsg81
Nsg114
g0
(g48
g2
Ntp720
Rp721
(dp722
g52
I1
sg53
g54
(g55
(I0
tp723
g57
tp724
Rp725
(I1
(I2
tp726
g64
I00
S'\x00\x00\x00\x00\x00\x00\xf0\x7f\x00\x00\x00\x00\x00\x00\xf0\x7f'
p727
tp728
bsg69
(dp729
I140024257275088
g718
ssg128
g54
(g55
(I0
tp730
g57
tp731
Rp732
(I1
(I2
I2
tp733
g64
I00
S'\x00\x00\x00\x00\x00\x00\x00\x00\x00\x00\x00\x00\x00\x00\x00\x00\x00\x00\x00\x00\x00\x00\xf0?\x00\x00\x00\x00\x00\x00\xf0?'
p734
tp735
bsg135
g54
(g55
(I0
tp736
g57
tp737
Rp738
(I1
(I2
I2
tp739
g64
I00
S'\x00\x00\x00\x00\x00\x00\x00\x00\x00\x00\x00\x00\x00\x00\x00\x00\x00\x00\x00\x00\x00\x00\xf0?\x00\x00\x00\x00\x00\x00\xf0?'
p740
tp741
bsg142
I01
sg89
g7
sbsg69
(dp742
I140024257275152
g715
ssg89
g7
sbsg181
I2
sg182
g0
(g77
g2
Ntp743
Rp744
(dp745
g52
I2
sg81
Nsg82
g54
(g55
(I0
tp746
g57
tp747
Rp748
(I1
(I3
I3
tp749
g64
I00
S'\x00\x00\x00\x00\x00\x00\xf0?\x00\x00\x00\x00\x00\x00\x00\x00\x00\x00\x00\x00\x00\x00\x00\x00\x00\x00\x00\x00\x00\x00\x00\x00\x00\x00\x00\x00\x00\x00\xf0?\x00\x00\x00\x00\x00\x00\x00\x00\x00\x00\x00\x00\x00\x00\x00\x00\x00\x00\x00\x00\x00\x00\x00\x00\x00\x00\x00\x00\x00\x00\xf0?'
p750
tp751
bsg89
g7
sg69
(dp752
I140024257275152
g715
ssbsg69
(dp753
I140024257275216
g712
ssg89
g7
sbsg181
I2
sg182
g112
sg69
(dp754
I140024257275280
g0
(g71
g2
Ntp755
Rp756
(dp757
g52
I1
sg75
g0
(g48
g2
Ntp758
Rp759
(dp760
g52
I1
sg53
g54
(g55
(I0
tp761
g57
tp762
Rp763
(I1
(I2
tp764
g64
I00
S'\x00\x00\x00\x00\x00\x00\xf0\x7f\x00\x00\x00\x00\x00\x00\xf0\x7f'
p765
tp766
bsg69
(dp767
I140024257275280
g756
ssg128
g54
(g55
(I0
tp768
g57
tp769
Rp770
(I1
(I2
I2
tp771
g64
I00
S'\x00\x00\x00\x00\x00\x00\x00\x00\x00\x00\x00\x00\x00\x00\x00\x00\x00\x00\x00\x00\x00\x00\xf0?\x00\x00\x00\x00\x00\x00\xf0?'
p772
tp773
bsg135
g54
(g55
(I0
tp774
g57
tp775
Rp776
(I1
(I2
I2
tp777
g64
I00
S'\x00\x00\x00\x00\x00\x00\x00\x00\x00\x00\x00\x00\x00\x00\x00\x00\x00\x00\x00\x00\x00\x00\xf0?\x00\x00\x00\x00\x00\x00\xf0?'
p778
tp779
bsg142
I01
sg89
g7
sbsg76
g712
sg135
Nsg69
(dp780
sg89
g7
sbssg89
g7
sbsI140024305260816
g107
sI140024305260880
g0
(g105
g2
Ntp781
Rp782
(dp783
g52
I2
sg109
g0
(g99
g2
Ntp784
Rp785
(dp786
g52
I2
sg103
I2
sg104
g0
(cmatplotlib.transforms
TransformWrapper
p787
g2
Ntp788
Rp789
(dp790
Voutput_dims
p791
I2
sVparents
p792
(dp793
I140024305260432
g0
(g71
g2
Ntp794
Rp795
(dp796
g52
I2
sg75
g0
(g48
g2
Ntp797
Rp798
(dp799
g52
I2
sg53
g54
(g55
(I0
tp800
g57
tp801
Rp802
(I1
(I2
tp803
g64
I00
S'\x00\x00\x00\x00\x00\x00\xf0\x7f\x00\x00\x00\x00\x00\x00\xf0\x7f'
p804
tp805
bsg69
(dp806
I140024305260432
g795
ssg128
g54
(g55
(I0
tp807
g57
tp808
Rp809
(I1
(I2
I2
tp810
g64
I00
S'\x00\x00\x00\x00\x00\x00\x00\x00\x00\x00\x00\x00\x00\x00\x00\x00\x00\x00\x00\x00\x00\x00\xf0?\x00\x00\x00\x00\x00\x00\xf0?'
p811
tp812
bsg135
g54
(g55
(I0
tp813
g57
tp814
Rp815
(I1
(I2
I2
tp816
g64
I00
S'\xcd\xcc\xcc\xcc\xcc\xcc\xec?R\xb8\x1e\x85\xebQ\x0e@\xcd\xcc\xcc\xcc\xcc\xcc\x08@\xd7\xa3p=\n\xd7\x18@'
p817
tp818
bsg142
I01
sg89
g7
sbsg76
g789
sg135
Nsg69
(dp819
I140024305260368
g0
(cmatplotlib.transforms
BboxTransformFrom
p820
g2
Ntp821
Rp822
(dp823
g52
I2
sS'_boxin'
p824
g795
sg82
Nsg81
Nsg89
g7
sg69
(dp825
I140024305260688
g0
(g99
g2
Ntp826
Rp827
(dp828
g52
I2
sg103
I2
sg104
g822
sg181
I2
sg182
g112
sg69
(dp829
I140024305260752
g785
sI140024257326096
Nssg89
g7
sbssbssg89
g7
sbsI140024305260752
g785
sI140024257326096
NssVinput_dims
p830
I2
sVchild
p831
g0
(cmatplotlib.transforms
BlendedAffine2D
p832
g2
Ntp833
Rp834
(dp835
g52
I0
sg82
g54
(g55
(I0
tp836
g57
tp837
Rp838
(I1
(I3
I3
tp839
g64
I00
S'\x00\x00\x00\x00\x00\x00\xf0?\x00\x00\x00\x00\x00\x00\x00\x00\x00\x00\x00\x00\x00\x00\x00\x00\x00\x00\x00\x00\x00\x00\x00\x00\x00\x00\x00\x00\x00\x00\xf0?\x00\x00\x00\x00\x00\x00\x00\x00\x00\x00\x00\x00\x00\x00\x00\x00\x00\x00\x00\x00\x00\x00\x00\x00\x00\x00\x00\x00\x00\x00\xf0?'
p840
tp841
bsg109
g0
(cmatplotlib.transforms
IdentityTransform
p842
g2
Ntp843
Rp844
(dp845
g52
I1
sg81
Nsg89
g7
sg69
(dp846
I140024305367312
g834
ssbsS'_x'
p847
g0
(g842
g2
Ntp848
Rp849
(dp850
g52
I1
sg81
Nsg89
g7
sg69
(dp851
I140024305367312
g834
ssbsg81
Nsg89
g7
sg69
(dp852
I140024305260624
g789
ssbsbsg181
I2
sg182
g827
sg69
(dp853
I140024305260816
g107
sI140024305260880
g782
ssg89
g7
sbsg847
g112
sS'_affine'
p854
Nsg69
(dp855
I140024257276112
g0
(g99
g2
Ntp856
Rp857
(dp858
g52
I1
sg103
I2
sg104
g782
sg181
I2
sg182
g0
(g91
g2
Ntp859
Rp860
(dp861
g52
I1
sg82
Nsg95
g79
sg81
Nsg96
(F-0.07500000000000001
I0
tp862
sg89
g7
sg69
(dp863
I140024257276112
g857
ssbsg69
(dp864
sg89
g7
sbsI140024257165264
g0
(g99
g2
Ntp865
Rp866
(dp867
g52
I1
sg103
I2
sg104
g782
sg181
I2
sg182
g0
(g91
g2
Ntp868
Rp869
(dp870
g52
I1
sg82
Nsg95
g79
sg81
Nsg96
(F-0.09722222222222222
I0
tp871
sg89
g7
sg69
(dp872
I140024257165264
g866
ssbsg69
(dp873
sg89
g7
sbsI140024257166608
g0
(g99
g2
Ntp874
Rp875
(dp876
g52
I1
sg103
I2
sg104
g782
sg181
I2
sg182
g0
(g91
g2
Ntp877
Rp878
(dp879
g52
I1
sg82
Nsg95
g79
sg81
Nsg96
(F-0.09722222222222222
I0
tp880
sg89
g7
sg69
(dp881
I140024257166608
g875
ssbsg69
(dp882
sg89
g7
sbsI140024257165520
g0
(g99
g2
Ntp883
Rp884
(dp885
g52
I1
sg103
I2
sg104
g782
sg181
I2
sg182
g0
(g91
g2
Ntp886
Rp887
(dp888
g52
I1
sg82
Nsg95
g79
sg81
Nsg96
(F0.09722222222222222
I0
tp889
sg89
g7
sg69
(dp890
I140024257165520
g884
ssbsg69
(dp891
sg89
g7
sbsI140024257276368
g0
(g99
g2
Ntp892
Rp893
(dp894
g52
I1
sg103
I2
sg104
g782
sg181
I2
sg182
g0
(g91
g2
Ntp895
Rp896
(dp897
g52
I1
sg82
Nsg95
g79
sg81
Nsg96
(F0.07500000000000001
I0
tp898
sg89
g7
sg69
(dp899
I140024257276368
g893
ssbsg69
(dp900
sg89
g7
sbsI140024257166864
g0
(g99
g2
Ntp901
Rp902
(dp903
g52
I1
sg103
I2
sg104
g782
sg181
I2
sg182
g0
(g91
g2
Ntp904
Rp905
(dp906
g52
I1
sg82
Nsg95
g79
sg81
Nsg96
(F0.09722222222222222
I0
tp907
sg89
g7
sg69
(dp908
I140024257166864
g902
ssbsg69
(dp909
sg89
g7
sbssg89
g7
sbsI140024305260688
g827
sI140024257219280
g0
(g99
g2
Ntp910
Rp911
(dp912
g52
I1
sg103
I2
sg104
g0
(g99
g2
Ntp913
Rp914
(dp915
g52
I1
sg103
I2
sg104
g0
(g110
g2
Ntp916
Rp917
(dp918
g52
I1
sg82
Nsg81
Nsg114
g0
(g48
g2
Ntp919
Rp920
(dp921
g52
I1
sg53
g54
(g55
(I0
tp922
g57
tp923
Rp924
(I1
(I2
tp925
g64
I00
S'\x00\x00\x00\x00\x00\x00\xf0\x7f\x00\x00\x00\x00\x00\x00\xf0\x7f'
p926
tp927
bsg69
(dp928
I140024257219152
g917
ssg128
g54
(g55
(I0
tp929
g57
tp930
Rp931
(I1
(I2
I2
tp932
g64
I00
S'\x00\x00\x00\x00\x00\x00\x00\x00\x00\x00\x00\x00\x00\x00\x00\x00\x00\x00\x00\x00\x00\x00\xf0?\x00\x00\x00\x00\x00\x00\xf0?'
p933
tp934
bsg135
g54
(g55
(I0
tp935
g57
tp936
Rp937
(I1
(I2
I2
tp938
g64
I00
S'\x00\x00\x00\x00\x00\x00\x00\x00\x00\x00\x00\x00\x00\x00\x00\x00\x00\x00\x00\x00\x00\x00\xf0?\x00\x00\x00\x00\x00\x00\xf0?'
p939
tp940
bsg142
I01
sg89
g7
sbsg69
(dp941
I140024257219216
g914
ssg89
g7
sbsg181
I2
sg182
g0
(g77
g2
Ntp942
Rp943
(dp944
g52
I2
sg81
Nsg82
g54
(g55
(I0
tp945
g57
tp946
Rp947
(I1
(I3
I3
tp948
g64
I00
S'\x00\x00\x00\x00\x00\x00\xf0?\x00\x00\x00\x00\x00\x00\x00\x00\x00\x00\x00\x00\x00\x00\x00\x00\x00\x00\x00\x00\x00\x00\x00\x00\x00\x00\x00\x00\x00\x00\xf0?\x00\x00\x00\x00\x00\x00\x00\x00\x00\x00\x00\x00\x00\x00\x00\x00\x00\x00\x00\x00\x00\x00\x00\x00\x00\x00\x00\x00\x00\x00\xf0?'
p949
tp950
bsg89
g7
sg69
(dp951
I140024257219216
g914
ssbsg69
(dp952
I140024257219280
g911
ssg89
g7
sbsg181
I2
sg182
g112
sg69
(dp953
I140024257219344
g0
(g71
g2
Ntp954
Rp955
(dp956
g52
I1
sg75
g0
(g48
g2
Ntp957
Rp958
(dp959
g52
I1
sg53
g54
(g55
(I0
tp960
g57
tp961
Rp962
(I1
(I2
tp963
g64
I00
S'\x00\x00\x00\x00\x00\x00\xf0\x7f\x00\x00\x00\x00\x00\x00\xf0\x7f'
p964
tp965
bsg69
(dp966
I140024257219344
g955
ssg128
g54
(g55
(I0
tp967
g57
tp968
Rp969
(I1
(I2
I2
tp970
g64
I00
S'\x00\x00\x00\x00\x00\x00\x00\x00\x00\x00\x00\x00\x00\x00\x00\x00\x00\x00\x00\x00\x00\x00\xf0?\x00\x00\x00\x00\x00\x00\xf0?'
p971
tp972
bsg135
g54
(g55
(I0
tp973
g57
tp974
Rp975
(I1
(I2
I2
tp976
g64
I00
S'\x00\x00\x00\x00\x00\x00\x00\x00\x00\x00\x00\x00\x00\x00\x00\x00\x00\x00\x00\x00\x00\x00\xf0?\x00\x00\x00\x00\x00\x00\xf0?'
p977
tp978
bsg142
I01
sg89
g7
sbsg76
g911
sg135
Nsg69
(dp979
sg89
g7
sbssg89
g7
sbsI140024257325840
g0
(g99
g2
Ntp980
Rp981
(dp982
g52
I1
sg103
I2
sg104
g0
(g99
g2
Ntp983
Rp984
(dp985
g52
I1
sg103
I2
sg104
g0
(g110
g2
Ntp986
Rp987
(dp988
g52
I1
sg82
Nsg81
Nsg114
g0
(g48
g2
Ntp989
Rp990
(dp991
g52
I1
sg53
g54
(g55
(I0
tp992
g57
tp993
Rp994
(I1
(I2
tp995
g64
I00
S'\x00\x00\x00\x00\x00\x00\xf0\x7f\x00\x00\x00\x00\x00\x00\xf0\x7f'
p996
tp997
bsg69
(dp998
I140024257325712
g987
ssg128
g54
(g55
(I0
tp999
g57
tp1000
Rp1001
(I1
(I2
I2
tp1002
g64
I00
S'\x00\x00\x00\x00\x00\x00\x00\x00\x00\x00\x00\x00\x00\x00\x00\x00\x00\x00\x00\x00\x00\x00\xf0?\x00\x00\x00\x00\x00\x00\xf0?'
p1003
tp1004
bsg135
g54
(g55
(I0
tp1005
g57
tp1006
Rp1007
(I1
(I2
I2
tp1008
g64
I00
S'\x00\x00\x00\x00\x00\x00\x00\x00\x00\x00\x00\x00\x00\x00\x00\x00\x00\x00\x00\x00\x00\x00\xf0?\x00\x00\x00\x00\x00\x00\xf0?'
p1009
tp1010
bsg142
I01
sg89
g7
sbsg69
(dp1011
I140024257325776
g984
ssg89
g7
sbsg181
I2
sg182
g0
(g77
g2
Ntp1012
Rp1013
(dp1014
g52
I2
sg81
Nsg82
g54
(g55
(I0
tp1015
g57
tp1016
Rp1017
(I1
(I3
I3
tp1018
g64
I00
S'\x00\x00\x00\x00\x00\x00\xf0?\x00\x00\x00\x00\x00\x00\x00\x00\x00\x00\x00\x00\x00\x00\x00\x00\x00\x00\x00\x00\x00\x00\x00\x00\x00\x00\x00\x00\x00\x00\xf0?\x00\x00\x00\x00\x00\x00\x00\x00\x00\x00\x00\x00\x00\x00\x00\x00\x00\x00\x00\x00\x00\x00\x00\x00\x00\x00\x00\x00\x00\x00\xf0?'
p1019
tp1020
bsg89
g7
sg69
(dp1021
I140024257325776
g984
ssbsg69
(dp1022
I140024257325840
g981
ssg89
g7
sbsg181
I2
sg182
g112
sg69
(dp1023
I140024257325904
g0
(g71
g2
Ntp1024
Rp1025
(dp1026
g52
I1
sg75
g0
(g48
g2
Ntp1027
Rp1028
(dp1029
g52
I1
sg53
g54
(g55
(I0
tp1030
g57
tp1031
Rp1032
(I1
(I2
tp1033
g64
I00
S'\x00\x00\x00\x00\x00\x00\xf0\x7f\x00\x00\x00\x00\x00\x00\xf0\x7f'
p1034
tp1035
bsg69
(dp1036
I140024257325904
g1025
ssg128
g54
(g55
(I0
tp1037
g57
tp1038
Rp1039
(I1
(I2
I2
tp1040
g64
I00
S'\x00\x00\x00\x00\x00\x00\x00\x00\x00\x00\x00\x00\x00\x00\x00\x00\x00\x00\x00\x00\x00\x00\xf0?\x00\x00\x00\x00\x00\x00\xf0?'
p1041
tp1042
bsg135
g54
(g55
(I0
tp1043
g57
tp1044
Rp1045
(I1
(I2
I2
tp1046
g64
I00
S'\x00\x00\x00\x00\x00\x00\x00\x00\x00\x00\x00\x00\x00\x00\x00\x00\x00\x00\x00\x00\x00\x00\xf0?\x00\x00\x00\x00\x00\x00\xf0?'
p1047
tp1048
bsg142
I01
sg89
g7
sbsg76
g981
sg135
Nsg69
(dp1049
sg89
g7
sbssg89
g7
sbsI140024257277072
g0
(g99
g2
Ntp1050
Rp1051
(dp1052
g52
I1
sg103
I2
sg104
g0
(g99
g2
Ntp1053
Rp1054
(dp1055
g52
I1
sg103
I2
sg104
g0
(g110
g2
Ntp1056
Rp1057
(dp1058
g52
I1
sg82
Nsg81
Nsg114
g0
(g48
g2
Ntp1059
Rp1060
(dp1061
g52
I1
sg53
g54
(g55
(I0
tp1062
g57
tp1063
Rp1064
(I1
(I2
tp1065
g64
I00
S'\x00\x00\x00\x00\x00\x00\xf0\x7f\x00\x00\x00\x00\x00\x00\xf0\x7f'
p1066
tp1067
bsg69
(dp1068
I140024257276944
g1057
ssg128
g54
(g55
(I0
tp1069
g57
tp1070
Rp1071
(I1
(I2
I2
tp1072
g64
I00
S'\x00\x00\x00\x00\x00\x00\x00\x00\x00\x00\x00\x00\x00\x00\x00\x00\x00\x00\x00\x00\x00\x00\xf0?\x00\x00\x00\x00\x00\x00\xf0?'
p1073
tp1074
bsg135
g54
(g55
(I0
tp1075
g57
tp1076
Rp1077
(I1
(I2
I2
tp1078
g64
I00
S'\x00\x00\x00\x00\x00\x00\x00\x00\x00\x00\x00\x00\x00\x00\x00\x00\x00\x00\x00\x00\x00\x00\xf0?\x00\x00\x00\x00\x00\x00\xf0?'
p1079
tp1080
bsg142
I01
sg89
g7
sbsg69
(dp1081
I140024257277008
g1054
ssg89
g7
sbsg181
I2
sg182
g0
(g77
g2
Ntp1082
Rp1083
(dp1084
g52
I2
sg81
Nsg82
g54
(g55
(I0
tp1085
g57
tp1086
Rp1087
(I1
(I3
I3
tp1088
g64
I00
S'\x00\x00\x00\x00\x00\x00\xf0?\x00\x00\x00\x00\x00\x00\x00\x00\x00\x00\x00\x00\x00\x00\x00\x00\x00\x00\x00\x00\x00\x00\x00\x00\x00\x00\x00\x00\x00\x00\xf0?\x00\x00\x00\x00\x00\x00\x00\x00\x00\x00\x00\x00\x00\x00\x00\x00\x00\x00\x00\x00\x00\x00\x00\x00\x00\x00\x00\x00\x00\x00\xf0?'
p1089
tp1090
bsg89
g7
sg69
(dp1091
I140024257277008
g1054
ssbsg69
(dp1092
I140024257277072
g1051
ssg89
g7
sbsg181
I2
sg182
g112
sg69
(dp1093
I140024257277136
g0
(g71
g2
Ntp1094
Rp1095
(dp1096
g52
I1
sg75
g0
(g48
g2
Ntp1097
Rp1098
(dp1099
g52
I1
sg53
g54
(g55
(I0
tp1100
g57
tp1101
Rp1102
(I1
(I2
tp1103
g64
I00
S'\x00\x00\x00\x00\x00\x00\xf0\x7f\x00\x00\x00\x00\x00\x00\xf0\x7f'
p1104
tp1105
bsg69
(dp1106
I140024257277136
g1095
ssg128
g54
(g55
(I0
tp1107
g57
tp1108
Rp1109
(I1
(I2
I2
tp1110
g64
I00
S'\x00\x00\x00\x00\x00\x00\x00\x00\x00\x00\x00\x00\x00\x00\x00\x00\x00\x00\x00\x00\x00\x00\xf0?\x00\x00\x00\x00\x00\x00\xf0?'
p1111
tp1112
bsg135
g54
(g55
(I0
tp1113
g57
tp1114
Rp1115
(I1
(I2
I2
tp1116
g64
I00
S'\x00\x00\x00\x00\x00\x00\x00\x00\x00\x00\x00\x00\x00\x00\x00\x00\x00\x00\x00\x00\x00\x00\xf0?\x00\x00\x00\x00\x00\x00\xf0?'
p1117
tp1118
bsg142
I01
sg89
g7
sbsg76
g1051
sg135
Nsg69
(dp1119
sg89
g7
sbssg89
g7
sbsI140024305262416
g0
(g832
g2
Ntp1120
Rp1121
(dp1122
g52
I1
sg82
Nsg109
g0
(g842
g2
Ntp1123
Rp1124
(dp1125
g52
I1
sg81
Nsg89
g7
sg69
(dp1126
I140024305262416
g1121
ssbsg847
g112
sg81
Nsg89
g7
sg69
(dp1127
sbsI140024257220176
g0
(g99
g2
Ntp1128
Rp1129
(dp1130
g52
I1
sg103
I2
sg104
g0
(g99
g2
Ntp1131
Rp1132
(dp1133
g52
I1
sg103
I2
sg104
g0
(g110
g2
Ntp1134
Rp1135
(dp1136
g52
I1
sg82
Nsg81
Nsg114
g0
(g48
g2
Ntp1137
Rp1138
(dp1139
g52
I1
sg53
g54
(g55
(I0
tp1140
g57
tp1141
Rp1142
(I1
(I2
tp1143
g64
I00
S'\x00\x00\x00\x00\x00\x00\xf0\x7f\x00\x00\x00\x00\x00\x00\xf0\x7f'
p1144
tp1145
bsg69
(dp1146
I140024257220048
g1135
ssg128
g54
(g55
(I0
tp1147
g57
tp1148
Rp1149
(I1
(I2
I2
tp1150
g64
I00
S'\x00\x00\x00\x00\x00\x00\x00\x00\x00\x00\x00\x00\x00\x00\x00\x00\x00\x00\x00\x00\x00\x00\xf0?\x00\x00\x00\x00\x00\x00\xf0?'
p1151
tp1152
bsg135
g54
(g55
(I0
tp1153
g57
tp1154
Rp1155
(I1
(I2
I2
tp1156
g64
I00
S'\x00\x00\x00\x00\x00\x00\x00\x00\x00\x00\x00\x00\x00\x00\x00\x00\x00\x00\x00\x00\x00\x00\xf0?\x00\x00\x00\x00\x00\x00\xf0?'
p1157
tp1158
bsg142
I01
sg89
g7
sbsg69
(dp1159
I140024257220112
g1132
ssg89
g7
sbsg181
I2
sg182
g0
(g77
g2
Ntp1160
Rp1161
(dp1162
g52
I2
sg81
Nsg82
g54
(g55
(I0
tp1163
g57
tp1164
Rp1165
(I1
(I3
I3
tp1166
g64
I00
S'\x00\x00\x00\x00\x00\x00\xf0?\x00\x00\x00\x00\x00\x00\x00\x00\x00\x00\x00\x00\x00\x00\x00\x00\x00\x00\x00\x00\x00\x00\x00\x00\x00\x00\x00\x00\x00\x00\xf0?\x00\x00\x00\x00\x00\x00\x00\x00\x00\x00\x00\x00\x00\x00\x00\x00\x00\x00\x00\x00\x00\x00\x00\x00\x00\x00\x00\x00\x00\x00\xf0?'
p1167
tp1168
bsg89
g7
sg69
(dp1169
I140024257220112
g1132
ssbsg69
(dp1170
I140024257220176
g1129
ssg89
g7
sbsg181
I2
sg182
g112
sg69
(dp1171
I140024257220240
g0
(g71
g2
Ntp1172
Rp1173
(dp1174
g52
I1
sg75
g0
(g48
g2
Ntp1175
Rp1176
(dp1177
g52
I1
sg53
g54
(g55
(I0
tp1178
g57
tp1179
Rp1180
(I1
(I2
tp1181
g64
I00
S'\x00\x00\x00\x00\x00\x00\xf0\x7f\x00\x00\x00\x00\x00\x00\xf0\x7f'
p1182
tp1183
bsg69
(dp1184
I140024257220240
g1173
ssg128
g54
(g55
(I0
tp1185
g57
tp1186
Rp1187
(I1
(I2
I2
tp1188
g64
I00
S'\x00\x00\x00\x00\x00\x00\x00\x00\x00\x00\x00\x00\x00\x00\x00\x00\x00\x00\x00\x00\x00\x00\xf0?\x00\x00\x00\x00\x00\x00\xf0?'
p1189
tp1190
bsg135
g54
(g55
(I0
tp1191
g57
tp1192
Rp1193
(I1
(I2
I2
tp1194
g64
I00
S'\x00\x00\x00\x00\x00\x00\x00\x00\x00\x00\x00\x00\x00\x00\x00\x00\x00\x00\x00\x00\x00\x00\xf0?\x00\x00\x00\x00\x00\x00\xf0?'
p1195
tp1196
bsg142
I01
sg89
g7
sbsg76
g1129
sg135
Nsg69
(dp1197
sg89
g7
sbssg89
g7
sbsI140024305365968
g0
(g832
g2
Ntp1198
Rp1199
(dp1200
g52
I1
sg82
Nsg109
g112
sg847
g0
(g842
g2
Ntp1201
Rp1202
(dp1203
g52
I1
sg81
Nsg89
g7
sg69
(dp1204
I140024305365968
g1199
ssbsg81
Nsg89
g7
sg69
(dp1205
sbsI140024305366224
g0
(g832
g2
Ntp1206
Rp1207
(dp1208
g52
I1
sg82
Nsg109
g0
(g842
g2
Ntp1209
Rp1210
(dp1211
g52
I1
sg81
Nsg89
g7
sg69
(dp1212
I140024305366224
g1207
ssbsg847
g112
sg81
Nsg89
g7
sg69
(dp1213
sbsI140024257326992
g0
(g99
g2
Ntp1214
Rp1215
(dp1216
g52
I1
sg103
I2
sg104
g0
(g99
g2
Ntp1217
Rp1218
(dp1219
g52
I1
sg103
I2
sg104
g0
(g110
g2
Ntp1220
Rp1221
(dp1222
g52
I1
sg82
Nsg81
Nsg114
g0
(g48
g2
Ntp1223
Rp1224
(dp1225
g52
I1
sg53
g54
(g55
(I0
tp1226
g57
tp1227
Rp1228
(I1
(I2
tp1229
g64
I00
S'\x00\x00\x00\x00\x00\x00\xf0\x7f\x00\x00\x00\x00\x00\x00\xf0\x7f'
p1230
tp1231
bsg69
(dp1232
I140024257326864
g1221
ssg128
g54
(g55
(I0
tp1233
g57
tp1234
Rp1235
(I1
(I2
I2
tp1236
g64
I00
S'\x00\x00\x00\x00\x00\x00\x00\x00\x00\x00\x00\x00\x00\x00\x00\x00\x00\x00\x00\x00\x00\x00\xf0?\x00\x00\x00\x00\x00\x00\xf0?'
p1237
tp1238
bsg135
g54
(g55
(I0
tp1239
g57
tp1240
Rp1241
(I1
(I2
I2
tp1242
g64
I00
S'\x00\x00\x00\x00\x00\x00\x00\x00\x00\x00\x00\x00\x00\x00\x00\x00\x00\x00\x00\x00\x00\x00\xf0?\x00\x00\x00\x00\x00\x00\xf0?'
p1243
tp1244
bsg142
I01
sg89
g7
sbsg69
(dp1245
I140024257326928
g1218
ssg89
g7
sbsg181
I2
sg182
g0
(g77
g2
Ntp1246
Rp1247
(dp1248
g52
I2
sg81
Nsg82
g54
(g55
(I0
tp1249
g57
tp1250
Rp1251
(I1
(I3
I3
tp1252
g64
I00
S'\x00\x00\x00\x00\x00\x00\xf0?\x00\x00\x00\x00\x00\x00\x00\x00\x00\x00\x00\x00\x00\x00\x00\x00\x00\x00\x00\x00\x00\x00\x00\x00\x00\x00\x00\x00\x00\x00\xf0?\x00\x00\x00\x00\x00\x00\x00\x00\x00\x00\x00\x00\x00\x00\x00\x00\x00\x00\x00\x00\x00\x00\x00\x00\x00\x00\x00\x00\x00\x00\xf0?'
p1253
tp1254
bsg89
g7
sg69
(dp1255
I140024257326928
g1218
ssbsg69
(dp1256
I140024257326992
g1215
ssg89
g7
sbsg181
I2
sg182
g112
sg69
(dp1257
I140024257327056
g0
(g71
g2
Ntp1258
Rp1259
(dp1260
g52
I1
sg75
g0
(g48
g2
Ntp1261
Rp1262
(dp1263
g52
I1
sg53
g54
(g55
(I0
tp1264
g57
tp1265
Rp1266
(I1
(I2
tp1267
g64
I00
S'\x00\x00\x00\x00\x00\x00\xf0\x7f\x00\x00\x00\x00\x00\x00\xf0\x7f'
p1268
tp1269
bsg69
(dp1270
I140024257327056
g1259
ssg128
g54
(g55
(I0
tp1271
g57
tp1272
Rp1273
(I1
(I2
I2
tp1274
g64
I00
S'\x00\x00\x00\x00\x00\x00\x00\x00\x00\x00\x00\x00\x00\x00\x00\x00\x00\x00\x00\x00\x00\x00\xf0?\x00\x00\x00\x00\x00\x00\xf0?'
p1275
tp1276
bsg135
g54
(g55
(I0
tp1277
g57
tp1278
Rp1279
(I1
(I2
I2
tp1280
g64
I00
S'\x00\x00\x00\x00\x00\x00\x00\x00\x00\x00\x00\x00\x00\x00\x00\x00\x00\x00\x00\x00\x00\x00\xf0?\x00\x00\x00\x00\x00\x00\xf0?'
p1281
tp1282
bsg142
I01
sg89
g7
sbsg76
g1215
sg135
Nsg69
(dp1283
sg89
g7
sbssg89
g7
sbsI140024257273936
g0
(g99
g2
Ntp1284
Rp1285
(dp1286
g52
I1
sg103
I2
sg104
g0
(g99
g2
Ntp1287
Rp1288
(dp1289
g52
I1
sg103
I2
sg104
g0
(g110
g2
Ntp1290
Rp1291
(dp1292
g52
I1
sg82
Nsg81
Nsg114
g0
(g48
g2
Ntp1293
Rp1294
(dp1295
g52
I1
sg53
g54
(g55
(I0
tp1296
g57
tp1297
Rp1298
(I1
(I2
tp1299
g64
I00
S'\x00\x00\x00\x00\x00\x00\xf0\x7f\x00\x00\x00\x00\x00\x00\xf0\x7f'
p1300
tp1301
bsg69
(dp1302
I140024257220496
g1291
ssg128
g54
(g55
(I0
tp1303
g57
tp1304
Rp1305
(I1
(I2
I2
tp1306
g64
I00
S'\x00\x00\x00\x00\x00\x00\x00\x00\x00\x00\x00\x00\x00\x00\x00\x00\x00\x00\x00\x00\x00\x00\xf0?\x00\x00\x00\x00\x00\x00\xf0?'
p1307
tp1308
bsg135
g54
(g55
(I0
tp1309
g57
tp1310
Rp1311
(I1
(I2
I2
tp1312
g64
I00
S'\x00\x00\x00\x00\x00\x00\x00\x00\x00\x00\x00\x00\x00\x00\x00\x00\x00\x00\x00\x00\x00\x00\xf0?\x00\x00\x00\x00\x00\x00\xf0?'
p1313
tp1314
bsg142
I01
sg89
g7
sbsg69
(dp1315
I140024257220560
g1288
ssg89
g7
sbsg181
I2
sg182
g0
(g77
g2
Ntp1316
Rp1317
(dp1318
g52
I2
sg81
Nsg82
g54
(g55
(I0
tp1319
g57
tp1320
Rp1321
(I1
(I3
I3
tp1322
g64
I00
S'\x00\x00\x00\x00\x00\x00\xf0?\x00\x00\x00\x00\x00\x00\x00\x00\x00\x00\x00\x00\x00\x00\x00\x00\x00\x00\x00\x00\x00\x00\x00\x00\x00\x00\x00\x00\x00\x00\xf0?\x00\x00\x00\x00\x00\x00\x00\x00\x00\x00\x00\x00\x00\x00\x00\x00\x00\x00\x00\x00\x00\x00\x00\x00\x00\x00\x00\x00\x00\x00\xf0?'
p1323
tp1324
bsg89
g7
sg69
(dp1325
I140024257220560
g1288
ssbsg69
(dp1326
I140024257273936
g1285
ssg89
g7
sbsg181
I2
sg182
g112
sg69
(dp1327
I140024257274000
g0
(g71
g2
Ntp1328
Rp1329
(dp1330
g52
I1
sg75
g0
(g48
g2
Ntp1331
Rp1332
(dp1333
g52
I1
sg53
g54
(g55
(I0
tp1334
g57
tp1335
Rp1336
(I1
(I2
tp1337
g64
I00
S'\x00\x00\x00\x00\x00\x00\xf0\x7f\x00\x00\x00\x00\x00\x00\xf0\x7f'
p1338
tp1339
bsg69
(dp1340
I140024257274000
g1329
ssg128
g54
(g55
(I0
tp1341
g57
tp1342
Rp1343
(I1
(I2
I2
tp1344
g64
I00
S'\x00\x00\x00\x00\x00\x00\x00\x00\x00\x00\x00\x00\x00\x00\x00\x00\x00\x00\x00\x00\x00\x00\xf0?\x00\x00\x00\x00\x00\x00\xf0?'
p1345
tp1346
bsg135
g54
(g55
(I0
tp1347
g57
tp1348
Rp1349
(I1
(I2
I2
tp1350
g64
I00
S'\x00\x00\x00\x00\x00\x00\x00\x00\x00\x00\x00\x00\x00\x00\x00\x00\x00\x00\x00\x00\x00\x00\xf0?\x00\x00\x00\x00\x00\x00\xf0?'
p1351
tp1352
bsg142
I01
sg89
g7
sbsg76
g1285
sg135
Nsg69
(dp1353
sg89
g7
sbssg89
g7
sbsI140024305365136
g0
(g832
g2
Ntp1354
Rp1355
(dp1356
g52
I1
sg82
Nsg109
g0
(g842
g2
Ntp1357
Rp1358
(dp1359
g52
I1
sg81
Nsg89
g7
sg69
(dp1360
I140024305365136
g1355
ssbsg847
g112
sg81
Nsg89
g7
sg69
(dp1361
sbsI140024257216848
g0
(g99
g2
Ntp1362
Rp1363
(dp1364
g52
I1
sg103
I2
sg104
g112
sg181
I2
sg182
g0
(g91
g2
Ntp1365
Rp1366
(dp1367
g52
I1
sg82
Nsg95
g79
sg81
Nsg96
(F0.0
F0.08333333333333333
tp1368
sg89
g7
sg69
(dp1369
I140024257216848
g1363
sI140024257216912
g0
(g99
g2
Ntp1370
Rp1371
(dp1372
g52
I1
sg103
I2
sg104
g112
sg181
I2
sg182
g1366
sg69
(dp1373
sg89
g7
sbsI140024257216976
g0
(g99
g2
Ntp1374
Rp1375
(dp1376
g52
I1
sg103
I2
sg104
g112
sg181
I2
sg182
g1366
sg69
(dp1377
sg89
g7
sbssbsg69
(dp1378
sg89
g7
sbsI140024257216912
g1371
sI140024257216976
g1375
sI140024257323536
g0
(g99
g2
Ntp1379
Rp1380
(dp1381
g52
I1
sg103
I2
sg104
g0
(g99
g2
Ntp1382
Rp1383
(dp1384
g52
I1
sg103
I2
sg104
g0
(g110
g2
Ntp1385
Rp1386
(dp1387
g52
I1
sg82
Nsg81
Nsg114
g0
(g48
g2
Ntp1388
Rp1389
(dp1390
g52
I1
sg53
g54
(g55
(I0
tp1391
g57
tp1392
Rp1393
(I1
(I2
tp1394
g64
I00
S'\x00\x00\x00\x00\x00\x00\xf0\x7f\x00\x00\x00\x00\x00\x00\xf0\x7f'
p1395
tp1396
bsg69
(dp1397
I140024257323408
g1386
ssg128
g54
(g55
(I0
tp1398
g57
tp1399
Rp1400
(I1
(I2
I2
tp1401
g64
I00
S'\x00\x00\x00\x00\x00\x00\x00\x00\x00\x00\x00\x00\x00\x00\x00\x00\x00\x00\x00\x00\x00\x00\xf0?\x00\x00\x00\x00\x00\x00\xf0?'
p1402
tp1403
bsg135
g54
(g55
(I0
tp1404
g57
tp1405
Rp1406
(I1
(I2
I2
tp1407
g64
I00
S'\x00\x00\x00\x00\x00\x00\x00\x00\x00\x00\x00\x00\x00\x00\x00\x00\x00\x00\x00\x00\x00\x00\xf0?\x00\x00\x00\x00\x00\x00\xf0?'
p1408
tp1409
bsg142
I01
sg89
g7
sbsg69
(dp1410
I140024257323472
g1383
ssg89
g7
sbsg181
I2
sg182
g0
(g77
g2
Ntp1411
Rp1412
(dp1413
g52
I2
sg81
Nsg82
g54
(g55
(I0
tp1414
g57
tp1415
Rp1416
(I1
(I3
I3
tp1417
g64
I00
S'\x00\x00\x00\x00\x00\x00\xf0?\x00\x00\x00\x00\x00\x00\x00\x00\x00\x00\x00\x00\x00\x00\x00\x00\x00\x00\x00\x00\x00\x00\x00\x00\x00\x00\x00\x00\x00\x00\xf0?\x00\x00\x00\x00\x00\x00\x00\x00\x00\x00\x00\x00\x00\x00\x00\x00\x00\x00\x00\x00\x00\x00\x00\x00\x00\x00\x00\x00\x00\x00\xf0?'
p1418
tp1419
bsg89
g7
sg69
(dp1420
I140024257323472
g1383
ssbsg69
(dp1421
I140024257323536
g1380
ssg89
g7
sbsg181
I2
sg182
g112
sg69
(dp1422
I140024257323600
g0
(g71
g2
Ntp1423
Rp1424
(dp1425
g52
I1
sg75
g0
(g48
g2
Ntp1426
Rp1427
(dp1428
g52
I1
sg53
g54
(g55
(I0
tp1429
g57
tp1430
Rp1431
(I1
(I2
tp1432
g64
I00
S'\x00\x00\x00\x00\x00\x00\xf0\x7f\x00\x00\x00\x00\x00\x00\xf0\x7f'
p1433
tp1434
bsg69
(dp1435
I140024257323600
g1424
ssg128
g54
(g55
(I0
tp1436
g57
tp1437
Rp1438
(I1
(I2
I2
tp1439
g64
I00
S'\x00\x00\x00\x00\x00\x00\x00\x00\x00\x00\x00\x00\x00\x00\x00\x00\x00\x00\x00\x00\x00\x00\xf0?\x00\x00\x00\x00\x00\x00\xf0?'
p1440
tp1441
bsg135
g54
(g55
(I0
tp1442
g57
tp1443
Rp1444
(I1
(I2
I2
tp1445
g64
I00
S'\x00\x00\x00\x00\x00\x00\x00\x00\x00\x00\x00\x00\x00\x00\x00\x00\x00\x00\x00\x00\x00\x00\xf0?\x00\x00\x00\x00\x00\x00\xf0?'
p1446
tp1447
bsg142
I01
sg89
g7
sbsg76
g1380
sg135
Nsg69
(dp1448
sg89
g7
sbssg89
g7
sbssg89
g7
sbsg847
g785
sg854
Nsg69
(dp1449
I140024305368720
g0
(g99
g2
Ntp1450
Rp1451
(dp1452
g52
I1
sg103
I2
sg104
g107
sg181
I2
sg182
g0
(g91
g2
Ntp1453
Rp1454
(dp1455
g52
I1
sg82
Nsg95
g79
sg81
Nsg96
(I0
F0.09722222222222222
tp1456
sg89
g7
sg69
(dp1457
I140024305368720
g1451
ssbsg69
(dp1458
sg89
g7
sbsI140024257164176
g0
(g99
g2
Ntp1459
Rp1460
(dp1461
g52
I1
sg103
I2
sg104
g107
sg181
I2
sg182
g0
(g91
g2
Ntp1462
Rp1463
(dp1464
g52
I1
sg82
Nsg95
g79
sg81
Nsg96
(I0
F0.09722222222222222
tp1465
sg89
g7
sg69
(dp1466
I140024257164176
g1460
ssbsg69
(dp1467
sg89
g7
sbsI140024257218640
g0
(g99
g2
Ntp1468
Rp1469
(dp1470
g52
I1
sg103
I2
sg104
g107
sg181
I2
sg182
g0
(g91
g2
Ntp1471
Rp1472
(dp1473
g52
I1
sg82
Nsg95
g79
sg81
Nsg96
(I0
F0.07500000000000001
tp1474
sg89
g7
sg69
(dp1475
I140024257218640
g1469
ssbsg69
(dp1476
sg89
g7
sbsI140024257218384
g0
(g99
g2
Ntp1477
Rp1478
(dp1479
g52
I1
sg103
I2
sg104
g107
sg181
I2
sg182
g0
(g91
g2
Ntp1480
Rp1481
(dp1482
g52
I1
sg82
Nsg95
g79
sg81
Nsg96
(I0
F-0.07500000000000001
tp1483
sg89
g7
sg69
(dp1484
I140024257218384
g1478
ssbsg69
(dp1485
sg89
g7
sbsI140024305368464
g101
sI140024257163920
g0
(g99
g2
Ntp1486
Rp1487
(dp1488
g52
I1
sg103
I2
sg104
g107
sg181
I2
sg182
g0
(g91
g2
Ntp1489
Rp1490
(dp1491
g52
I1
sg82
Nsg95
g79
sg81
Nsg96
(I0
F-0.09722222222222222
tp1492
sg89
g7
sg69
(dp1493
I140024257163920
g1487
ssbsg69
(dp1494
sg89
g7
sbssg89
g7
sbsg181
I2
sg182
g93
sg69
(dp1495
sg89
g7
sbssbsI140024257165200
g869
sI140024257163856
g1490
sI140024257218576
g1472
sI140024257165456
g887
sI140024257166544
g878
sI140024257276048
g860
sI140024257164112
g1463
sI140024257276304
g896
sI140024311687056
g73
sI140024305368656
g1454
sI140024257166800
g905
sI140024257216720
g1366
sI140024257218320
g1481
ssbsg135
g54
(g55
(I0
tp1496
g57
tp1497
Rp1498
(I1
(I2
I2
tp1499
g64
I00
S'\x00\x00\x00\x00\x00\x00\x00\x00\x00\x00\x00\x00\x00\x00\x00\x00\x00\x00\x00\x00\x00\x00\x84@\x00\x00\x00\x00\x00\x00~@'
p1500
tp1501
bsg69
(dp1502
I140024311687120
g144
ssg89
g7
sbssg128
g54
(g55
(I0
tp1503
g57
tp1504
Rp1505
(I1
(I2
I2
tp1506
g64
I00
S'\x00\x00\x00\x00\x00\x00\x00\x00\x00\x00\x00\x00\x00\x00\x00\x00\x9a\x99\x99\x99\x99\x99\x19@333333\x13@'
p1507
tp1508
bsg135
g54
(g55
(I0
tp1509
g57
tp1510
Rp1511
(I1
(I2
I2
tp1512
g64
I00
S'\x00\x00\x00\x00\x00\x00\x00\x00\x00\x00\x00\x00\x00\x00\x00\x00\x9a\x99\x99\x99\x99\x99\x19@333333\x13@'
p1513
tp1514
bsg142
I01
sg89
g7
sbsS'_suptitle'
p1515
NsS'_align_xlabel_grp'
p1516
g0
(cmatplotlib.cbook
Grouper
p1517
g2
Ntp1518
Rp1519
(dp1520
S'_mapping'
p1521
(dp1522
sbsS'number'
p1523
I1
sS'callbacks'
p1524
g0
(cmatplotlib.cbook
CallbackRegistry
p1525
g2
Ntp1526
Rp1527
(dp1528
S'exception_handler'
p1529
cmatplotlib.cbook
_exception_printer
p1530
sbsS'_snap'
p1531
NsS'_tight'
p1532
I00
sS'_stale'
p1533
I01
sS'dpi_scale_trans'
p1534
g79
sS'_sticky_edges'
p1535
g0
(cmatplotlib.artist
_XYPair
p1536
c__builtin__
tuple
p1537
((lp1538
(lp1539
tp1540
tp1541
Rp1542
sS'_constrained'
p1543
I00
sS'patches'
p1544
(lp1545
sS'legends'
p1546
(lp1547
sS'suppressComposite'
p1548
NsS'_transformSet'
p1549
I00
sS'_alpha'
p1550
NsS'_axstack'
p1551
g0
(cmatplotlib.figure
AxesStack
p1552
g2
Ntp1553
Rp1554
(dp1555
S'_default'
p1556
NsS'_elements'
p1557
(lp1558
(((I1
I1
I1
tp1559
(ttp1560
(I1
g0
(cmatplotlib.axes._subplots
_PicklableSubplotClassConstructor
p1561
g2
Ntp1562
Rp1563
(cmatplotlib.axes._axes
Axes
p1564
tp1565
Rp1566
(dp1567
S'transLimits'
p1568
g822
sS'_get_patches_for_fill'
p1569
g0
(cmatplotlib.axes._base
_process_plot_var_args
p1570
g2
Ntp1571
Rp1572
(dp1573
Vaxes
p1574
g1566
sVcommand
p1575
Vfill
p1576
sbsS'_xcid'
p1577
I1
sg6
g7
sS'legend_'
p1578
NsS'_use_sticky_edges'
p1579
I01
sg18
(lp1580
sS'_frameon'
p1581
I01
sS'_autoscaleYon'
p1582
I01
sg20
I01
sg21
(lp1583
sg26
I01
sS'tables'
p1584
(lp1585
sg1544
(lp1586
sS'title'
p1587
g0
(cmatplotlib.text
Text
p1588
g2
Ntp1589
Rp1590
(dp1591
g6
g7
sg15
I01
sg14
g4
sg16
NsS'_fontproperties'
p1592
g0
(cmatplotlib.font_manager
FontProperties
p1593
g2
Ntp1594
Rp1595
(dp1596
S'_family'
p1597
(lp1598
Vsans-serif
p1599
asS'_file'
p1600
NsS'_variant'
p1601
S'normal'
p1602
sS'_slant'
p1603
g1602
sS'_size'
p1604
F12.0
sS'_weight'
p1605
g1602
sS'_stretch'
p1606
g1602
sbsg42
Nsg23
g24
sS'_multialignment'
p1607
Nsg26
I01
sg29
Nsg109
F1.0
sg847
F0.5
sg30
Nsg31
Nsg17
Nsg35
I00
sg36
I00
sg37
(dp1608
sS'_renderer'
p1609
Nsg39
I00
sS'_axes'
p1610
g1566
sg43
NsS'_url'
p1611
NsS'_rotation_mode'
p1612
Nsg40
Nsg1531
Nsg1533
I01
sS'_verticalalignment'
p1613
Vbaseline
p1614
sS'_text'
p1615
g7
sS'_bbox_patch'
p1616
Nsg1535
g0
(g1536
g1537
((lp1617
(lp1618
tp1619
tp1620
Rp1621
sg34
I0
sS'_rotation'
p1622
Nsg1549
I01
sg1550
NsS'_linespacing'
p1623
F1.2
sg76
g1363
sS'_usetex'
p1624
I00
sS'_wrap'
p1625
I00
sS'_gid'
p1626
NsS'_color'
p1627
S'k'
p1628
sS'_horizontalalignment'
p1629
Vcenter
p1630
sg41
NsbsS'_current_image'
p1631
NsS'mouseover_set'
p1632
c__builtin__
set
p1633
((lp1634
tp1635
Rp1636
sg17
NsS'numRows'
p1637
I1
sS'collections'
p1638
(lp1639
g0
(cmatplotlib.collections
LineCollection
p1640
g2
Ntp1641
Rp1642
(dp1643
g6
V_nolegend_
p1644
sg15
I01
sg14
g4
sS'_linestyles'
p1645
(lp1646
(NNtp1647
asS'_offset_position'
p1648
Vscreen
p1649
sg16
Nsg42
NsS'callbacksSM'
p1650
g0
(g1525
g2
Ntp1651
Rp1652
(dp1653
g1529
g1530
sbsg23
NsS'_offsets'
p1654
g54
(g55
(I0
tp1655
g57
tp1656
Rp1657
(I1
(I1
I2
tp1658
g64
I00
S'\x00\x00\x00\x00\x00\x00\x00\x00\x00\x00\x00\x00\x00\x00\x00\x00'
p1659
tp1660
bsS'_paths'
p1661
(lp1662
g0
(cmatplotlib.path
Path
p1663
g2
Ntp1664
Rp1665
(dp1666
S'_should_simplify'
p1667
I00
sS'_codes'
p1668
NsS'_vertices'
p1669
g54
(g55
(I0
tp1670
g57
tp1671
Rp1672
(I1
(I2
I2
tp1673
g64
I00
S'\x00\x00\x00\x00\x00\x00\xf0?333333\x0f@\x00\x00\x00\x00\x00\x00\xf0?ffffff\x10@'
p1674
tp1675
bsS'_readonly'
p1676
I00
sS'_simplify_threshold'
p1677
F0.1111111111111111
sS'_interpolation_steps'
p1678
I1
sS'_has_nonfinite'
p1679
I00
sbag0
(g1663
g2
Ntp1680
Rp1681
(dp1682
g1667
I00
sg1668
Nsg1669
g54
(g55
(I0
tp1683
g57
tp1684
Rp1685
(I1
(I2
I2
tp1686
g64
I00
S'\x00\x00\x00\x00\x00\x00\x00@\x9a\x99\x99\x99\x99\x99\x13@\x00\x00\x00\x00\x00\x00\x00@ffffff\x14@'
p1687
tp1688
bsg1676
I00
sg1677
F0.1111111111111111
sg1678
I1
sg1679
I00
sbag0
(g1663
g2
Ntp1689
Rp1690
(dp1691
g1667
I00
sg1668
Nsg1669
g54
(g55
(I0
tp1692
g57
tp1693
Rp1694
(I1
(I2
I2
tp1695
g64
I00
S'\x00\x00\x00\x00\x00\x00\x08@\x9a\x99\x99\x99\x99\x99\x17@\x00\x00\x00\x00\x00\x00\x08@ffffff\x18@'
p1696
tp1697
bsg1676
I00
sg1677
F0.1111111111111111
sg1678
I1
sg1679
I00
sbasg26
I01
sS'_A'
p1698
NsS'_us_linestyles'
p1699
(lp1700
(NNtp1701
asg29
Nsg30
NsS'_original_edgecolor'
p1702
S'#1f77b4'
p1703
sg17
Nsg35
I00
sS'_facecolors'
p1704
g54
(g55
(I0
tp1705
g57
tp1706
Rp1707
(I1
(I0
I4
tp1708
g64
I00
S''
p1709
tp1710
bsS'_uniform_offsets'
p1711
Nsg36
I00
sg1626
Nsg37
(dp1712
sS'_antialiaseds'
p1713
g54
(g55
(I0
tp1714
g57
tp1715
Rp1716
(I1
(I1
tp1717
g61
(S'b1'
p1718
I0
I1
tp1719
Rp1720
(I3
S'|'
p1721
NNNI-1
I-1
I0
tp1722
bI00
S'\x01'
p1723
tp1724
bsS'zorder'
p1725
I2
sg39
I00
sS'norm'
p1726
g0
(cmatplotlib.colors
Normalize
p1727
g2
Ntp1728
Rp1729
(dp1730
S'vmax'
p1731
NsS'clip'
p1732
I00
sS'vmin'
p1733
NsbsS'_hatch'
p1734
Nsg1533
I01
sS'_urls'
p1735
(lp1736
NasS'_edgecolors'
p1737
g54
(g55
(I0
tp1738
g57
tp1739
Rp1740
(I1
(I1
I4
tp1741
g64
I00
S'\x1f\x1f\x1f\x1f\x1f\x1f\xbf?\xde\xdd\xdd\xdd\xdd\xdd\xdd?\x97\x96\x96\x96\x96\x96\xe6?\x00\x00\x00\x00\x00\x00\xf0?'
p1742
tp1743
bsg43
g1259
sS'_pickradius'
p1744
I5
sg40
NsS'_hatch_color'
p1745
(cnumpy.core.multiarray
scalar
p1746
(g64
S'\x1f\x1f\x1f\x1f\x1f\x1f\xbf?'
p1747
tp1748
Rp1749
g1746
(g64
S'\xde\xdd\xdd\xdd\xdd\xdd\xdd?'
p1750
tp1751
Rp1752
g1746
(g64
S'\x97\x96\x96\x96\x96\x96\xe6?'
p1753
tp1754
Rp1755
g1746
(g64
S'\x00\x00\x00\x00\x00\x00\xf0?'
p1756
tp1757
Rp1758
tp1759
sS'_original_facecolor'
p1760
Vnone
p1761
sS'update_dict'
p1762
(dp1763
Varray
p1764
I00
ssg1531
NsS'_joinstyle'
p1765
NsS'_linewidths'
p1766
g54
(g55
(I0
tp1767
g57
tp1768
Rp1769
(I1
(I1
tp1770
g64
I00
S'\x00\x00\x00\x00\x00\x00\xf8?'
p1771
tp1772
bsg1535
g0
(g1536
g1537
((lp1773
(lp1774
tp1775
tp1776
Rp1777
sg34
I0
sS'_is_stroked'
p1778
I01
sS'_is_filled'
p1779
I00
sg1549
I01
sg1550
Nsg76
g785
sS'colorbar'
p1780
NsS'_us_lw'
p1781
g1769
sS'cmap'
p1782
g0
(cmatplotlib.colors
ListedColormap
p1783
g2
Ntp1784
Rp1785
(dp1786
S'_i_bad'
p1787
I258
sS'_rgba_over'
p1788
NsS'name'
p1789
S'viridis'
p1790
sS'_i_under'
p1791
I256
sS'_i_over'
p1792
I257
sS'N'
p1793
I256
sS'colors'
p1794
(lp1795
(lp1796
F0.267004
aF0.004874
aF0.329415
aa(lp1797
F0.26851
aF0.009605
aF0.335427
aa(lp1798
F0.269944
aF0.014625
aF0.341379
aa(lp1799
F0.271305
aF0.019942
aF0.347269
aa(lp1800
F0.272594
aF0.025563
aF0.353093
aa(lp1801
F0.273809
aF0.031497
aF0.358853
aa(lp1802
F0.274952
aF0.037752
aF0.364543
aa(lp1803
F0.276022
aF0.044167
aF0.370164
aa(lp1804
F0.277018
aF0.050344
aF0.375715
aa(lp1805
F0.277941
aF0.056324
aF0.381191
aa(lp1806
F0.278791
aF0.062145
aF0.386592
aa(lp1807
F0.279566
aF0.067836
aF0.391917
aa(lp1808
F0.280267
aF0.073417
aF0.397163
aa(lp1809
F0.280894
aF0.078907
aF0.402329
aa(lp1810
F0.281446
aF0.08432
aF0.407414
aa(lp1811
F0.281924
aF0.089666
aF0.412415
aa(lp1812
F0.282327
aF0.094955
aF0.417331
aa(lp1813
F0.282656
aF0.100196
aF0.42216
aa(lp1814
F0.28291
aF0.105393
aF0.426902
aa(lp1815
F0.283091
aF0.110553
aF0.431554
aa(lp1816
F0.283197
aF0.11568
aF0.436115
aa(lp1817
F0.283229
aF0.120777
aF0.440584
aa(lp1818
F0.283187
aF0.125848
aF0.44496
aa(lp1819
F0.283072
aF0.130895
aF0.449241
aa(lp1820
F0.282884
aF0.13592
aF0.453427
aa(lp1821
F0.282623
aF0.140926
aF0.457517
aa(lp1822
F0.28229
aF0.145912
aF0.46151
aa(lp1823
F0.281887
aF0.150881
aF0.465405
aa(lp1824
F0.281412
aF0.155834
aF0.469201
aa(lp1825
F0.280868
aF0.160771
aF0.472899
aa(lp1826
F0.280255
aF0.165693
aF0.476498
aa(lp1827
F0.279574
aF0.170599
aF0.479997
aa(lp1828
F0.278826
aF0.17549
aF0.483397
aa(lp1829
F0.278012
aF0.180367
aF0.486697
aa(lp1830
F0.277134
aF0.185228
aF0.489898
aa(lp1831
F0.276194
aF0.190074
aF0.493001
aa(lp1832
F0.275191
aF0.194905
aF0.496005
aa(lp1833
F0.274128
aF0.199721
aF0.498911
aa(lp1834
F0.273006
aF0.20452
aF0.501721
aa(lp1835
F0.271828
aF0.209303
aF0.504434
aa(lp1836
F0.270595
aF0.214069
aF0.507052
aa(lp1837
F0.269308
aF0.218818
aF0.509577
aa(lp1838
F0.267968
aF0.223549
aF0.512008
aa(lp1839
F0.26658
aF0.228262
aF0.514349
aa(lp1840
F0.265145
aF0.232956
aF0.516599
aa(lp1841
F0.263663
aF0.237631
aF0.518762
aa(lp1842
F0.262138
aF0.242286
aF0.520837
aa(lp1843
F0.260571
aF0.246922
aF0.522828
aa(lp1844
F0.258965
aF0.251537
aF0.524736
aa(lp1845
F0.257322
aF0.25613
aF0.526563
aa(lp1846
F0.255645
aF0.260703
aF0.528312
aa(lp1847
F0.253935
aF0.265254
aF0.529983
aa(lp1848
F0.252194
aF0.269783
aF0.531579
aa(lp1849
F0.250425
aF0.27429
aF0.533103
aa(lp1850
F0.248629
aF0.278775
aF0.534556
aa(lp1851
F0.246811
aF0.283237
aF0.535941
aa(lp1852
F0.244972
aF0.287675
aF0.53726
aa(lp1853
F0.243113
aF0.292092
aF0.538516
aa(lp1854
F0.241237
aF0.296485
aF0.539709
aa(lp1855
F0.239346
aF0.300855
aF0.540844
aa(lp1856
F0.237441
aF0.305202
aF0.541921
aa(lp1857
F0.235526
aF0.309527
aF0.542944
aa(lp1858
F0.233603
aF0.313828
aF0.543914
aa(lp1859
F0.231674
aF0.318106
aF0.544834
aa(lp1860
F0.229739
aF0.322361
aF0.545706
aa(lp1861
F0.227802
aF0.326594
aF0.546532
aa(lp1862
F0.225863
aF0.330805
aF0.547314
aa(lp1863
F0.223925
aF0.334994
aF0.548053
aa(lp1864
F0.221989
aF0.339161
aF0.548752
aa(lp1865
F0.220057
aF0.343307
aF0.549413
aa(lp1866
F0.21813
aF0.347432
aF0.550038
aa(lp1867
F0.21621
aF0.351535
aF0.550627
aa(lp1868
F0.214298
aF0.355619
aF0.551184
aa(lp1869
F0.212395
aF0.359683
aF0.55171
aa(lp1870
F0.210503
aF0.363727
aF0.552206
aa(lp1871
F0.208623
aF0.367752
aF0.552675
aa(lp1872
F0.206756
aF0.371758
aF0.553117
aa(lp1873
F0.204903
aF0.375746
aF0.553533
aa(lp1874
F0.203063
aF0.379716
aF0.553925
aa(lp1875
F0.201239
aF0.38367
aF0.554294
aa(lp1876
F0.19943
aF0.387607
aF0.554642
aa(lp1877
F0.197636
aF0.391528
aF0.554969
aa(lp1878
F0.19586
aF0.395433
aF0.555276
aa(lp1879
F0.1941
aF0.399323
aF0.555565
aa(lp1880
F0.192357
aF0.403199
aF0.555836
aa(lp1881
F0.190631
aF0.407061
aF0.556089
aa(lp1882
F0.188923
aF0.41091
aF0.556326
aa(lp1883
F0.187231
aF0.414746
aF0.556547
aa(lp1884
F0.185556
aF0.41857
aF0.556753
aa(lp1885
F0.183898
aF0.422383
aF0.556944
aa(lp1886
F0.182256
aF0.426184
aF0.55712
aa(lp1887
F0.180629
aF0.429975
aF0.557282
aa(lp1888
F0.179019
aF0.433756
aF0.55743
aa(lp1889
F0.177423
aF0.437527
aF0.557565
aa(lp1890
F0.175841
aF0.44129
aF0.557685
aa(lp1891
F0.174274
aF0.445044
aF0.557792
aa(lp1892
F0.172719
aF0.448791
aF0.557885
aa(lp1893
F0.171176
aF0.45253
aF0.557965
aa(lp1894
F0.169646
aF0.456262
aF0.55803
aa(lp1895
F0.168126
aF0.459988
aF0.558082
aa(lp1896
F0.166617
aF0.463708
aF0.558119
aa(lp1897
F0.165117
aF0.467423
aF0.558141
aa(lp1898
F0.163625
aF0.471133
aF0.558148
aa(lp1899
F0.162142
aF0.474838
aF0.55814
aa(lp1900
F0.160665
aF0.47854
aF0.558115
aa(lp1901
F0.159194
aF0.482237
aF0.558073
aa(lp1902
F0.157729
aF0.485932
aF0.558013
aa(lp1903
F0.15627
aF0.489624
aF0.557936
aa(lp1904
F0.154815
aF0.493313
aF0.55784
aa(lp1905
F0.153364
aF0.497
aF0.557724
aa(lp1906
F0.151918
aF0.500685
aF0.557587
aa(lp1907
F0.150476
aF0.504369
aF0.55743
aa(lp1908
F0.149039
aF0.508051
aF0.55725
aa(lp1909
F0.147607
aF0.511733
aF0.557049
aa(lp1910
F0.14618
aF0.515413
aF0.556823
aa(lp1911
F0.144759
aF0.519093
aF0.556572
aa(lp1912
F0.143343
aF0.522773
aF0.556295
aa(lp1913
F0.141935
aF0.526453
aF0.555991
aa(lp1914
F0.140536
aF0.530132
aF0.555659
aa(lp1915
F0.139147
aF0.533812
aF0.555298
aa(lp1916
F0.13777
aF0.537492
aF0.554906
aa(lp1917
F0.136408
aF0.541173
aF0.554483
aa(lp1918
F0.135066
aF0.544853
aF0.554029
aa(lp1919
F0.133743
aF0.548535
aF0.553541
aa(lp1920
F0.132444
aF0.552216
aF0.553018
aa(lp1921
F0.131172
aF0.555899
aF0.552459
aa(lp1922
F0.129933
aF0.559582
aF0.551864
aa(lp1923
F0.128729
aF0.563265
aF0.551229
aa(lp1924
F0.127568
aF0.566949
aF0.550556
aa(lp1925
F0.126453
aF0.570633
aF0.549841
aa(lp1926
F0.125394
aF0.574318
aF0.549086
aa(lp1927
F0.124395
aF0.578002
aF0.548287
aa(lp1928
F0.123463
aF0.581687
aF0.547445
aa(lp1929
F0.122606
aF0.585371
aF0.546557
aa(lp1930
F0.121831
aF0.589055
aF0.545623
aa(lp1931
F0.121148
aF0.592739
aF0.544641
aa(lp1932
F0.120565
aF0.596422
aF0.543611
aa(lp1933
F0.120092
aF0.600104
aF0.54253
aa(lp1934
F0.119738
aF0.603785
aF0.5414
aa(lp1935
F0.119512
aF0.607464
aF0.540218
aa(lp1936
F0.119423
aF0.611141
aF0.538982
aa(lp1937
F0.119483
aF0.614817
aF0.537692
aa(lp1938
F0.119699
aF0.61849
aF0.536347
aa(lp1939
F0.120081
aF0.622161
aF0.534946
aa(lp1940
F0.120638
aF0.625828
aF0.533488
aa(lp1941
F0.12138
aF0.629492
aF0.531973
aa(lp1942
F0.122312
aF0.633153
aF0.530398
aa(lp1943
F0.123444
aF0.636809
aF0.528763
aa(lp1944
F0.12478
aF0.640461
aF0.527068
aa(lp1945
F0.126326
aF0.644107
aF0.525311
aa(lp1946
F0.128087
aF0.647749
aF0.523491
aa(lp1947
F0.130067
aF0.651384
aF0.521608
aa(lp1948
F0.132268
aF0.655014
aF0.519661
aa(lp1949
F0.134692
aF0.658636
aF0.517649
aa(lp1950
F0.137339
aF0.662252
aF0.515571
aa(lp1951
F0.14021
aF0.665859
aF0.513427
aa(lp1952
F0.143303
aF0.669459
aF0.511215
aa(lp1953
F0.146616
aF0.67305
aF0.508936
aa(lp1954
F0.150148
aF0.676631
aF0.506589
aa(lp1955
F0.153894
aF0.680203
aF0.504172
aa(lp1956
F0.157851
aF0.683765
aF0.501686
aa(lp1957
F0.162016
aF0.687316
aF0.499129
aa(lp1958
F0.166383
aF0.690856
aF0.496502
aa(lp1959
F0.170948
aF0.694384
aF0.493803
aa(lp1960
F0.175707
aF0.6979
aF0.491033
aa(lp1961
F0.180653
aF0.701402
aF0.488189
aa(lp1962
F0.185783
aF0.704891
aF0.485273
aa(lp1963
F0.19109
aF0.708366
aF0.482284
aa(lp1964
F0.196571
aF0.711827
aF0.479221
aa(lp1965
F0.202219
aF0.715272
aF0.476084
aa(lp1966
F0.20803
aF0.718701
aF0.472873
aa(lp1967
F0.214
aF0.722114
aF0.469588
aa(lp1968
F0.220124
aF0.725509
aF0.466226
aa(lp1969
F0.226397
aF0.728888
aF0.462789
aa(lp1970
F0.232815
aF0.732247
aF0.459277
aa(lp1971
F0.239374
aF0.735588
aF0.455688
aa(lp1972
F0.24607
aF0.73891
aF0.452024
aa(lp1973
F0.252899
aF0.742211
aF0.448284
aa(lp1974
F0.259857
aF0.745492
aF0.444467
aa(lp1975
F0.266941
aF0.748751
aF0.440573
aa(lp1976
F0.274149
aF0.751988
aF0.436601
aa(lp1977
F0.281477
aF0.755203
aF0.432552
aa(lp1978
F0.288921
aF0.758394
aF0.428426
aa(lp1979
F0.296479
aF0.761561
aF0.424223
aa(lp1980
F0.304148
aF0.764704
aF0.419943
aa(lp1981
F0.311925
aF0.767822
aF0.415586
aa(lp1982
F0.319809
aF0.770914
aF0.411152
aa(lp1983
F0.327796
aF0.77398
aF0.40664
aa(lp1984
F0.335885
aF0.777018
aF0.402049
aa(lp1985
F0.344074
aF0.780029
aF0.397381
aa(lp1986
F0.35236
aF0.783011
aF0.392636
aa(lp1987
F0.360741
aF0.785964
aF0.387814
aa(lp1988
F0.369214
aF0.788888
aF0.382914
aa(lp1989
F0.377779
aF0.791781
aF0.377939
aa(lp1990
F0.386433
aF0.794644
aF0.372886
aa(lp1991
F0.395174
aF0.797475
aF0.367757
aa(lp1992
F0.404001
aF0.800275
aF0.362552
aa(lp1993
F0.412913
aF0.803041
aF0.357269
aa(lp1994
F0.421908
aF0.805774
aF0.35191
aa(lp1995
F0.430983
aF0.808473
aF0.346476
aa(lp1996
F0.440137
aF0.811138
aF0.340967
aa(lp1997
F0.449368
aF0.813768
aF0.335384
aa(lp1998
F0.458674
aF0.816363
aF0.329727
aa(lp1999
F0.468053
aF0.818921
aF0.323998
aa(lp2000
F0.477504
aF0.821444
aF0.318195
aa(lp2001
F0.487026
aF0.823929
aF0.312321
aa(lp2002
F0.496615
aF0.826376
aF0.306377
aa(lp2003
F0.506271
aF0.828786
aF0.300362
aa(lp2004
F0.515992
aF0.831158
aF0.294279
aa(lp2005
F0.525776
aF0.833491
aF0.288127
aa(lp2006
F0.535621
aF0.835785
aF0.281908
aa(lp2007
F0.545524
aF0.838039
aF0.275626
aa(lp2008
F0.555484
aF0.840254
aF0.269281
aa(lp2009
F0.565498
aF0.84243
aF0.262877
aa(lp2010
F0.575563
aF0.844566
aF0.256415
aa(lp2011
F0.585678
aF0.846661
aF0.249897
aa(lp2012
F0.595839
aF0.848717
aF0.243329
aa(lp2013
F0.606045
aF0.850733
aF0.236712
aa(lp2014
F0.616293
aF0.852709
aF0.230052
aa(lp2015
F0.626579
aF0.854645
aF0.223353
aa(lp2016
F0.636902
aF0.856542
aF0.21662
aa(lp2017
F0.647257
aF0.8584
aF0.209861
aa(lp2018
F0.657642
aF0.860219
aF0.203082
aa(lp2019
F0.668054
aF0.861999
aF0.196293
aa(lp2020
F0.678489
aF0.863742
aF0.189503
aa(lp2021
F0.688944
aF0.865448
aF0.182725
aa(lp2022
F0.699415
aF0.867117
aF0.175971
aa(lp2023
F0.709898
aF0.868751
aF0.169257
aa(lp2024
F0.720391
aF0.87035
aF0.162603
aa(lp2025
F0.730889
aF0.871916
aF0.156029
aa(lp2026
F0.741388
aF0.873449
aF0.149561
aa(lp2027
F0.751884
aF0.874951
aF0.143228
aa(lp2028
F0.762373
aF0.876424
aF0.137064
aa(lp2029
F0.772852
aF0.877868
aF0.131109
aa(lp2030
F0.783315
aF0.879285
aF0.125405
aa(lp2031
F0.79376
aF0.880678
aF0.120005
aa(lp2032
F0.804182
aF0.882046
aF0.114965
aa(lp2033
F0.814576
aF0.883393
aF0.110347
aa(lp2034
F0.82494
aF0.88472
aF0.106217
aa(lp2035
F0.83527
aF0.886029
aF0.102646
aa(lp2036
F0.845561
aF0.887322
aF0.099702
aa(lp2037
F0.85581
aF0.888601
aF0.097452
aa(lp2038
F0.866013
aF0.889868
aF0.095953
aa(lp2039
F0.876168
aF0.891125
aF0.09525
aa(lp2040
F0.886271
aF0.892374
aF0.095374
aa(lp2041
F0.89632
aF0.893616
aF0.096335
aa(lp2042
F0.906311
aF0.894855
aF0.098125
aa(lp2043
F0.916242
aF0.896091
aF0.100717
aa(lp2044
F0.926106
aF0.89733
aF0.104071
aa(lp2045
F0.935904
aF0.89857
aF0.108131
aa(lp2046
F0.945636
aF0.899815
aF0.112838
aa(lp2047
F0.9553
aF0.901065
aF0.118128
aa(lp2048
F0.964894
aF0.902323
aF0.123941
aa(lp2049
F0.974417
aF0.90359
aF0.130215
aa(lp2050
F0.983868
aF0.904867
aF0.136897
aa(lp2051
F0.993248
aF0.906157
aF0.143936
aasS'_rgba_under'
p2052
NsS'_rgba_bad'
p2053
(F0.0
F0.0
F0.0
F0.0
tp2054
sS'monochrome'
p2055
I00
sS'colorbar_extend'
p2056
I00
sS'_isinit'
p2057
I00
sbsS'_capstyle'
p2058
Nsg1611
Nsg31
Nsg1610
g1566
sg41
Nsbasg1610
g1566
sg37
(dp2059
sg39
I00
sS'containers'
p2060
(lp2061
g0
(cmatplotlib.container
ErrorbarContainer
p2062
g1537
(g0
(cmatplotlib.lines
Line2D
p2063
g2
Ntp2064
Rp2065
(dp2066
g6
g1644
sg1577
I2
sS'_dashcapstyle'
p2067
S'butt'
p2068
sg1645
Nsg26
I01
sS'_x_filled'
p2069
NsS'ind_offset'
p2070
I0
sg109
g54
(g55
(I0
tp2071
g57
tp2072
Rp2073
(I1
(I3
tp2074
g64
I00
S'\x00\x00\x00\x00\x00\x00\x10@\x00\x00\x00\x00\x00\x00\x14@\x00\x00\x00\x00\x00\x00\x18@'
p2075
tp2076
bsg847
g54
(g55
(I0
tp2077
g57
tp2078
Rp2079
(I1
(I3
tp2080
g64
I00
S'\x00\x00\x00\x00\x00\x00\xf0?\x00\x00\x00\x00\x00\x00\x00@\x00\x00\x00\x00\x00\x00\x08@'
p2081
tp2082
bsg30
Nsg17
Nsg36
I00
sg37
(dp2083
sg39
I00
sg1610
g1566
sS'_markeredgewidth'
p2084
F1.0
sS'_dashSeq'
p2085
NsS'_markerfacecoloralt'
p2086
Vnone
p2087
sS'_markeredgecolor'
p2088
Vauto
p2089
sg1531
Nsg1533
I01
sS'_xorig'
p2090
(lp2091
I1
aI2
aI3
asg34
I0
sg1549
I01
sS'_invalidy'
p2092
I00
sS'_invalidx'
p2093
I00
sg76
g785
sS'_us_dashSeq'
p2094
Nsg1725
F2.1
sg1627
g1703
sS'pickradius'
p2095
I5
sg14
g4
sS'verticalOffset'
p2096
Nsg16
NsS'_dashOffset'
p2097
Nsg42
Nsg23
g24
sS'_solidjoinstyle'
p2098
S'round'
p2099
sg29
Nsg31
Nsg35
I00
sS'_markevery'
p2100
Nsg41
NsS'_transformed_path'
p2101
NsS'_marker'
p2102
g0
(cmatplotlib.markers
MarkerStyle
p2103
g2
Ntp2104
Rp2105
(dp2106
g2102
S'None'
p2107
sS'_alt_path'
p2108
NsS'_snap_threshold'
p2109
Nsg76
g0
(g842
g2
Ntp2110
Rp2111
(dp2112
g52
I1
sg81
Nsg89
g7
sg69
(dp2113
sbsS'_filled'
p2114
I00
sS'_fillstyle'
p2115
S'full'
p2116
sS'_alt_transform'
p2117
Nsg2058
Vbutt
p2118
sg1765
Vround
p2119
sS'_path'
p2120
g0
(g1663
g2
Ntp2121
Rp2122
(dp2123
g1667
I00
sg1668
Nsg1669
g54
(g55
(I0
tp2124
g57
tp2125
Rp2126
(I1
(I0
I2
tp2127
g64
I00
g1709
tp2128
bsg1676
I00
sg1677
F0.1111111111111111
sg1678
I1
sg1679
I00
sbsbsS'_markerfacecolor'
p2129
Vauto
p2130
sg43
g1025
sg40
NsS'_antialiased'
p2131
I01
sS'_xy'
p2132
g54
(g55
(I0
tp2133
g57
tp2134
Rp2135
(I1
(I3
I2
tp2136
g64
I00
S'\x00\x00\x00\x00\x00\x00\xf0?\x00\x00\x00\x00\x00\x00\x10@\x00\x00\x00\x00\x00\x00\x00@\x00\x00\x00\x00\x00\x00\x14@\x00\x00\x00\x00\x00\x00\x08@\x00\x00\x00\x00\x00\x00\x18@'
p2137
tp2138
bsS'_linestyle'
p2139
S'-'
p2140
sg1535
g0
(g1536
g1537
((lp2141
(lp2142
tp2143
tp2144
Rp2145
sS'_subslice'
p2146
I00
sS'_drawstyle'
p2147
Vdefault
p2148
sS'_solidcapstyle'
p2149
S'projecting'
p2150
sS'_us_dashOffset'
p2151
Nsg1550
NsS'_dashjoinstyle'
p2152
S'round'
p2153
sS'_markersize'
p2154
F6.0
sg15
I01
sS'_ycid'
p2155
I2
sg1626
Nsg1611
NsS'_yorig'
p2156
(lp2157
I4
aI5
aI6
asS'_linewidth'
p2158
F1.5
sg2120
g0
(g1663
g2
Ntp2159
Rp2160
(dp2161
g1667
I00
sg1668
Nsg1669
g54
(g55
(I0
tp2162
g57
tp2163
Rp2164
(I1
(I3
I2
tp2165
g64
I01
S'\x00\x00\x00\x00\x00\x00\xf0?\x00\x00\x00\x00\x00\x00\x00@\x00\x00\x00\x00\x00\x00\x08@\x00\x00\x00\x00\x00\x00\x10@\x00\x00\x00\x00\x00\x00\x14@\x00\x00\x00\x00\x00\x00\x18@'
p2166
tp2167
bsg1676
I00
sg1677
F0.1111111111111111
sg1678
I1
sg1679
I00
sbsb(t(g1642
tp2168
tp2169
tp2170
Rp2171
(dp2172
g6
NsS'lines'
p2173
(g2065
(tg2168
tp2174
sS'has_xerr'
p2175
I00
sg37
(dp2176
sS'has_yerr'
p2177
I01
sg39
I00
sg34
I0
sg41
Nsbasg36
I00
sg43
NsS'_get_lines'
p2178
g0
(g1570
g2
Ntp2179
Rp2180
(dp2181
g1574
g1566
sg1575
Vplot
p2182
sbsS'_aspect'
p2183
Vauto
p2184
sS'fmt_xdata'
p2185
Nsg1524
g0
(g1525
g2
Ntp2186
Rp2187
(dp2188
g1529
g1530
sbsg1531
NsS'_facecolor'
p2189
S'w'
p2190
sg1533
I01
sS'bbox'
p2191
g116
sS'ignore_existing_data_limits'
p2192
I00
sg30
Nsg34
I0
sg1549
I00
sS'_left_title'
p2193
g0
(g1588
g2
Ntp2194
Rp2195
(dp2196
g6
g7
sg15
I01
sg14
g4
sg16
Nsg1592
g0
(g1593
g2
Ntp2197
Rp2198
(dp2199
g1597
g1598
sg1600
Nsg1601
g1602
sg1603
g1602
sg1604
F12.0
sg1605
g1602
sg1606
g1602
sbsg42
Nsg23
g24
sg1607
Nsg26
I01
sg29
Nsg109
F1.0
sg847
F0.0
sg30
Nsg31
Nsg17
Nsg35
I00
sg36
I00
sg37
(dp2200
sg1609
Nsg39
I00
sg1610
g1566
sg43
Nsg1611
Nsg1612
Nsg40
Nsg1531
Nsg1533
I01
sg1613
g1614
sg1615
g7
sg1616
Nsg1535
g0
(g1536
g1537
((lp2201
(lp2202
tp2203
tp2204
Rp2205
sg34
I0
sg1622
Nsg1549
I01
sg1550
Nsg1623
F1.2
sg76
g1371
sg1624
I00
sg1625
I00
sg1626
Nsg1627
g1628
sg1629
Vleft
p2206
sg41
NsbsS'_right_title'
p2207
g0
(g1588
g2
Ntp2208
Rp2209
(dp2210
g6
g7
sg15
I01
sg14
g4
sg16
Nsg1592
g0
(g1593
g2
Ntp2211
Rp2212
(dp2213
g1597
g1598
sg1600
Nsg1601
g1602
sg1603
g1602
sg1604
F12.0
sg1605
g1602
sg1606
g1602
sbsg42
Nsg23
g24
sg1607
Nsg26
I01
sg29
Nsg109
F1.0
sg847
F1.0
sg30
Nsg31
Nsg17
Nsg35
I00
sg36
I00
sg37
(dp2214
sg1609
Nsg39
I00
sg1610
g1566
sg43
Nsg1611
Nsg1612
Nsg40
Nsg1531
Nsg1533
I01
sg1613
g1614
sg1615
g7
sg1616
Nsg1535
g0
(g1536
g1537
((lp2215
(lp2216
tp2217
tp2218
Rp2219
sg34
I0
sg1622
Nsg1549
I01
sg1550
Nsg1623
F1.2
sg76
g1375
sg1624
I00
sg1625
I00
sg1626
Nsg1627
g1628
sg1629
Vright
p2220
sg41
NsbsS'transScale'
p2221
g789
sg76
NsS'axison'
p2222
I01
sS'patch'
p2223
g0
(cmatplotlib.patches
Rectangle
p2224
g2
Ntp2225
Rp2226
(dp2227
g6
g7
sS'_width'
p2228
F1.0
sS'_fill'
p2229
I01
sg14
g4
sg15
I01
sg16
Nsg42
Nsg23
g24
sg1626
NsS'_x0'
p2230
F0.0
sg26
I01
sS'_combined_transform'
p2231
g0
(g842
g2
Ntp2232
Rp2233
(dp2234
g52
I1
sg81
Nsg89
g7
sg69
(dp2235
sbsS'_edgecolor'
p2236
(F0.0
F0.0
F0.0
F0.0
tp2237
sS'angle'
p2238
F0.0
sg29
Nsg30
Nsg1702
VNone
p2239
sg17
NsS'_x1'
p2240
F1.0
sg35
I00
sg36
I00
sg37
(dp2241
sS'_rect_transform'
p2242
g1218
sg39
I00
sg1734
Nsg1533
I01
sg2158
F0.0
sg43
NsS'_height'
p2243
F1.0
sg40
Nsg1745
g2237
sS'_dashes'
p2244
Nsg2131
I01
sS'_dashoffset'
p2245
Nsg1760
g2190
sg1531
Nsg2189
(g1746
(g64
S'\x00\x00\x00\x00\x00\x00\xf0?'
p2246
tp2247
Rp2248
g1746
(g64
S'\x00\x00\x00\x00\x00\x00\xf0?'
p2249
tp2250
Rp2251
g1746
(g64
S'\x00\x00\x00\x00\x00\x00\xf0?'
p2252
tp2253
Rp2254
I1
tp2255
sg1765
Vmiter
p2256
sg2139
Vsolid
p2257
sg1535
g0
(g1536
g1537
((lp2258
(lp2259
tp2260
tp2261
Rp2262
sg34
I0
sS'_y1'
p2263
F1.0
sS'_y0'
p2264
F0.0
sg1549
I01
sg1550
Nsg76
g112
sS'_us_dashes'
p2265
(NNtp2266
sg2058
Vbutt
p2267
sg1611
Nsg31
Nsg1610
Nsg41
NsbsS'viewLim'
p2268
g798
sg23
g24
sS'_subplotspec'
p2269
g0
(cmatplotlib.gridspec
SubplotSpec
p2270
g2
Ntp2271
Rp2272
(dp2273
S'num1'
p2274
I0
sS'num2'
p2275
I0
sS'_gridspec'
p2276
g0
(cmatplotlib.gridspec
GridSpec
p2277
g2
Ntp2278
Rp2279
(dp2280
S'_nrows'
p2281
I1
sS'right'
p2282
NsS'_col_width_ratios'
p2283
Nsg14
g4
sS'bottom'
p2284
NsS'top'
p2285
NsS'wspace'
p2286
NsS'_ncols'
p2287
I1
sS'hspace'
p2288
NsS'_row_height_ratios'
p2289
NsS'left'
p2290
NsbsbsS'_adjustable'
p2291
Vbox
p2292
sg14
g4
sS'titleOffsetTrans'
p2293
g1366
sS'_yaxis_transform'
p2294
g782
sS'_gridOn'
p2295
I00
sg16
NsS'colNum'
p2296
g1746
(g61
(S'i8'
p2297
I0
I1
tp2298
Rp2299
(I3
S'<'
p2300
NNNI-1
I-1
I0
tp2301
bS'\x00\x00\x00\x00\x00\x00\x00\x00'
p2302
tp2303
Rp2304
sg42
Nsg45
(lp2305
sS'_autoscaleXon'
p2306
I01
sS'_xmargin'
p2307
F0.05
sS'rowNum'
p2308
g1746
(g2299
S'\x00\x00\x00\x00\x00\x00\x00\x00'
p2309
tp2310
Rp2311
sS'_position'
p2312
g119
sS'_rasterization_zorder'
p2313
NsS'_cachedRenderer'
p2314
NsS'_navigate'
p2315
I01
sg29
NsS'_originalPosition'
p2316
g0
(g48
g2
Ntp2317
Rp2318
(dp2319
g52
I1
sg53
g54
(g55
(I0
tp2320
g57
tp2321
Rp2322
(I1
(I2
tp2323
g64
I00
S'\x00\x00\x00\x00\x00\x00\xf0\x7f\x00\x00\x00\x00\x00\x00\xf0\x7f'
p2324
tp2325
bsg69
(dp2326
sg128
g54
(g55
(I0
tp2327
g57
tp2328
Rp2329
(I1
(I2
I2
tp2330
g64
I00
S'\x00\x00\x00\x00\x00\x00\xc0?(\\\x8f\xc2\xf5(\xbc?\xcd\xcc\xcc\xcc\xcc\xcc\xec?)\\\x8f\xc2\xf5(\xec?'
p2331
tp2332
bsg135
g54
(g55
(I0
tp2333
g57
tp2334
Rp2335
(I1
(I2
I2
tp2336
g64
I00
S'\x00\x00\x00\x00\x00\x00\xc0?(\\\x8f\xc2\xf5(\xbc?\xcd\xcc\xcc\xcc\xcc\xcc\xec?)\\\x8f\xc2\xf5(\xec?'
p2337
tp2338
bsg142
I01
sg89
g7
sbsg31
NsS'_xaxis_transform'
p2339
g107
sg35
I00
sS'figbox'
p2340
g119
sS'xaxis'
p2341
g0
(cmatplotlib.axis
XAxis
p2342
g2
Ntp2343
Rp2344
(dp2345
g6
g7
sS'major'
p2346
g0
(cmatplotlib.axis
Ticker
p2347
g2
Ntp2348
Rp2349
(dp2350
S'locator'
p2351
g0
(cmatplotlib.ticker
AutoLocator
p2352
g2
Ntp2353
Rp2354
(dp2355
S'_min_n_ticks'
p2356
I2
sS'_symmetric'
p2357
I00
sS'_nbins'
p2358
Vauto
p2359
sS'_steps'
p2360
g54
(g55
(I0
tp2361
g57
tp2362
Rp2363
(I1
(I5
tp2364
g64
I00
S'\x00\x00\x00\x00\x00\x00\xf0?\x00\x00\x00\x00\x00\x00\x00@\x00\x00\x00\x00\x00\x00\x04@\x00\x00\x00\x00\x00\x00\x14@\x00\x00\x00\x00\x00\x00$@'
p2365
tp2366
bsS'_prune'
p2367
NsS'_extended_steps'
p2368
g54
(g55
(I0
tp2369
g57
tp2370
Rp2371
(I1
(I10
tp2372
g64
I00
S'\x9a\x99\x99\x99\x99\x99\xb9?\x9a\x99\x99\x99\x99\x99\xc9?\x00\x00\x00\x00\x00\x00\xd0?\x00\x00\x00\x00\x00\x00\xe0?\x00\x00\x00\x00\x00\x00\xf0?\x00\x00\x00\x00\x00\x00\x00@\x00\x00\x00\x00\x00\x00\x04@\x00\x00\x00\x00\x00\x00\x14@\x00\x00\x00\x00\x00\x00$@\x00\x00\x00\x00\x00\x004@'
p2373
tp2374
bsS'_integer'
p2375
I00
sS'axis'
p2376
g2344
sbsS'formatter'
p2377
g0
(cmatplotlib.ticker
ScalarFormatter
p2378
g2
Ntp2379
Rp2380
(dp2381
S'_powerlimits'
p2382
(lp2383
I-7
aI7
asS'orderOfMagnitude'
p2384
I0
sS'_useOffset'
p2385
I01
sS'_useLocale'
p2386
I00
sS'format'
p2387
g7
sS'_useMathText'
p2388
I00
sS'_offset_threshold'
p2389
I4
sS'offset'
p2390
I0
sg1624
I00
sS'_scientific'
p2391
I01
sg2376
g2344
sbsbsS'isDefault_label'
p2392
I01
sS'_scale'
p2393
g0
(cmatplotlib.scale
LinearScale
p2394
g2
Ntp2395
Rp2396
sg14
g4
sg15
I01
sS'_gridOnMinor'
p2397
I00
sg16
Nsg42
NsS'_smart_bounds'
p2398
I00
sg23
g24
sg26
I01
sg29
NsS'offsetText'
p2399
g0
(g1588
g2
Ntp2400
Rp2401
(dp2402
g6
g7
sg15
I01
sg14
g4
sg16
Nsg1592
g0
(g1593
g2
Ntp2403
Rp2404
(dp2405
g1597
(lp2406
Vsans-serif
p2407
asg1600
Nsg1601
g1602
sg1603
g1602
sg1604
F10.0
sg1605
g1602
sg1606
g1602
sbsg42
Nsg23
g24
sg1607
Nsg26
I01
sg29
Nsg109
I0
sg847
I1
sg30
Nsg31
Nsg17
Nsg35
I00
sg36
I00
sg37
(dp2408
sg1609
Nsg39
I00
sg1610
Nsg43
Nsg1611
Nsg1612
Nsg40
Nsg1531
Nsg1533
I01
sg1613
Vtop
p2409
sg1615
g1709
sg1616
Nsg1535
g0
(g1536
g1537
((lp2410
(lp2411
tp2412
tp2413
Rp2414
sg34
I0
sg1622
Nsg1549
I01
sg1550
Nsg1623
F1.2
sg76
g1355
sg1624
I00
sg1625
I00
sg1626
Nsg1627
g1628
sg1629
Vright
p2415
sg41
Nsbsg30
Nsg31
Nsg17
NsS'label'
p2416
g0
(g1588
g2
Ntp2417
Rp2418
(dp2419
g6
g7
sg15
I01
sg14
g4
sg16
Nsg1592
g0
(g1593
g2
Ntp2420
Rp2421
(dp2422
g1597
(lp2423
Vsans-serif
p2424
asg1600
Nsg1601
g1602
sg1603
g1602
sg1604
F10.0
sg1605
g1602
sg1606
g1602
sbsg42
Nsg23
g24
sg1607
Nsg26
I01
sg29
Nsg109
I0
sg847
F0.5
sg30
Nsg31
Nsg17
Nsg35
I00
sg36
I00
sg37
(dp2425
sg1609
Nsg39
I00
sg1610
Nsg43
Nsg1611
Nsg1612
Nsg40
Nsg1531
Nsg1533
I01
sg1613
Vtop
p2426
sg1615
g7
sg1616
Nsg1535
g0
(g1536
g1537
((lp2427
(lp2428
tp2429
tp2430
Rp2431
sg34
I0
sg1622
Nsg1549
I01
sg1550
Nsg1623
F1.2
sg76
g1121
sg1624
I00
sg1625
I00
sg1626
Nsg1627
g1628
sg1629
Vcenter
p2432
sg41
Nsbsg35
I00
sS'isDefault_majfmt'
p2433
I01
sg36
I00
sg37
(dp2434
sS'units'
p2435
Nsg39
I00
sS'minor'
p2436
g0
(g2347
g2
Ntp2437
Rp2438
(dp2439
g2351
g0
(cmatplotlib.ticker
NullLocator
p2440
g2
Ntp2441
Rp2442
(dp2443
g2376
g2344
sbsg2377
g0
(cmatplotlib.ticker
NullFormatter
p2444
g2
Ntp2445
Rp2446
(dp2447
g2376
g2344
sbsbsg1610
g1566
sS'_major_tick_kw'
p2448
(dp2449
Vtick1On
p2450
I01
sVlabel1On
p2451
I01
sVtick2On
p2452
I00
sS'gridOn'
p2453
I00
sVlabel2On
p2454
I00
ssS'isDefault_minloc'
p2455
I01
sg43
g266
sg40
NsS'_gridOnMajor'
p2456
I00
sS'labelpad'
p2457
F4.0
sS'majorTicks'
p2458
(lp2459
g0
(cmatplotlib.axis
XTick
p2460
g2
Ntp2461
Rp2462
(dp2463
g6
g7
sg2228
F0.8
sg14
g4
sS'tick1On'
p2464
I01
sg15
I01
sg1549
I00
sg16
Nsg34
I0
sg42
NsS'_pad'
p2465
F7.0
sS'_labelcolor'
p2466
g1628
sg2453
I00
sg1604
F3.5
sg23
g24
sS'_tickdir'
p2467
S'out'
p2468
sg2416
g0
(g1588
g2
Ntp2469
Rp2470
(dp2471
g6
g7
sg15
I01
sg14
g4
sg16
Nsg1592
g0
(g1593
g2
Ntp2472
Rp2473
(dp2474
g1597
(lp2475
Vsans-serif
p2476
asg1600
Nsg1601
g1602
sg1603
g1602
sg1604
F10.0
sg1605
g1602
sg1606
g1602
sbsg42
Nsg23
g24
sg1607
Nsg26
I01
sg29
Nsg109
I0
sg847
I0
sg30
Nsg31
Nsg17
Nsg35
I00
sg36
I00
sg37
(dp2477
sg1609
Nsg39
I00
sg1610
Nsg43
Nsg1611
Nsg1612
Nsg40
Nsg1531
Nsg1533
I01
sg1613
Vtop
p2478
sg1615
g1709
sg1616
Nsg1535
g0
(g1536
g1537
((lp2479
(lp2480
tp2481
tp2482
Rp2483
sg34
I0
sg1622
Nsg1549
I01
sg1550
Nsg1623
F1.2
sg76
g1487
sg1624
I00
sg1625
I00
sg1626
Nsg1627
g1628
sg1629
S'center'
p2484
sg41
Nsbsg26
I01
sg29
NsS'label2On'
p2485
I00
sg30
Nsg31
NsS'_grid_color'
p2486
S'#b0b0b0'
p2487
sg17
NsS'tick2On'
p2488
I00
sg35
I00
sS'_grid_kw'
p2489
(dp2490
sg36
I00
sg37
(dp2491
sS'_tickmarkers'
p2492
(I3
I2
tp2493
sg39
I00
sS'_zorder'
p2494
F2.01
sg1610
g1566
sS'label1On'
p2495
I01
sg43
g955
sg1611
NsS'label1'
p2496
g2470
sS'label2'
p2497
g0
(g1588
g2
Ntp2498
Rp2499
(dp2500
g6
g7
sg15
I01
sg14
g4
sg16
Nsg1592
g0
(g1593
g2
Ntp2501
Rp2502
(dp2503
g1597
(lp2504
Vsans-serif
p2505
asg1600
Nsg1601
g1602
sg1603
g1602
sg1604
F10.0
sg1605
g1602
sg1606
g1602
sbsg42
Nsg23
g24
sg1607
Nsg26
I01
sg29
Nsg109
I1
sg847
I0
sg30
Nsg31
Nsg17
Nsg35
I00
sg36
I00
sg37
(dp2506
sg1609
Nsg39
I00
sg1610
Nsg43
Nsg1611
Nsg1612
Nsg40
Nsg1531
Nsg1533
I01
sg1613
Vbottom
p2507
sg1615
g1709
sg1616
Nsg1535
g0
(g1536
g1537
((lp2508
(lp2509
tp2510
tp2511
Rp2512
sg34
I0
sg1622
Nsg1549
I01
sg1550
Nsg1623
F1.2
sg76
g1460
sg1624
I00
sg1625
I00
sg1626
Nsg1627
g1628
sg1629
g2484
sg41
Nsbsg1531
NsS'_loc'
p2513
I0
sg1533
I01
sg1535
g0
(g1536
g1537
((lp2514
(lp2515
tp2516
tp2517
Rp2518
sS'_base_pad'
p2519
F3.5
sS'_grid_linewidth'
p2520
F0.8
sS'_grid_alpha'
p2521
F1.0
sS'gridline'
p2522
g0
(g2063
g2
Ntp2523
Rp2524
(dp2525
g6
g7
sg15
I01
sg2149
S'projecting'
p2526
sg14
g4
sg2067
S'butt'
p2527
sg1645
Nsg16
Nsg42
Nsg23
g24
sg2098
S'round'
p2528
sg26
I01
sg2069
Nsg29
Nsg109
g54
(g55
(I0
tp2529
g57
tp2530
Rp2531
(I1
(I2
tp2532
g64
I00
S'\x00\x00\x00\x00\x00\x00\x00\x00\x00\x00\x00\x00\x00\x00\xf0?'
p2533
tp2534
bsg847
g54
(g55
(I0
tp2535
g57
tp2536
Rp2537
(I1
(I2
tp2538
g64
I00
S'\x00\x00\x00\x00\x00\x00\x00\x00\x00\x00\x00\x00\x00\x00\x00\x00'
p2539
tp2540
bsg30
Nsg31
Nsg17
Nsg2090
(F0.0
F0.0
tp2541
sg35
I00
sg2100
Nsg36
I00
sg37
(dp2542
sg2096
Nsg39
I00
sg2146
I00
sg1610
Nsg2101
Nsg2084
F1.0
sg2129
g2130
sg2085
Nsg1627
g2487
sg2102
g0
(g2103
g2
Ntp2543
Rp2544
(dp2545
g2102
g2107
sg2108
Nsg2109
Nsg76
g0
(g842
g2
Ntp2546
Rp2547
(dp2548
g52
I1
sg81
Nsg89
g7
sg69
(dp2549
sbsg2114
I00
sg2115
g2116
sg2117
Nsg2058
g2118
sg1765
g2119
sg2120
g2122
sbsg40
Nsg2086
g2087
sg2131
I01
sg2088
g2089
sg1531
Nsg2154
F0.0
sg1533
I01
sg2132
g54
(g55
(I0
tp2550
g57
tp2551
Rp2552
(I1
(I2
I2
tp2553
g64
I00
S'\x00\x00\x00\x00\x00\x00\x00\x00\x00\x00\x00\x00\x00\x00\x00\x00\x00\x00\x00\x00\x00\x00\x00\x00\x00\x00\x00\x00\x00\x00\xf0?'
p2554
tp2555
bsg2139
g2140
sg1535
g0
(g1536
g1537
((lp2556
(lp2557
tp2558
tp2559
Rp2560
sg34
I0
sg2147
g2148
sg2070
I0
sg2151
Nsg2095
I5
sg1549
I01
sg1550
F1.0
sg2152
S'round'
p2561
sg2093
I00
sg76
g107
sg2097
Nsg2094
Nsg2092
I00
sg1626
Nsg1611
Nsg2156
(I0
F1.0
tp2562
sg43
g546
sg2158
F0.8
sg41
Nsg2120
g0
(g1663
g2
Ntp2563
Rp2564
(dp2565
g1667
I00
sg1668
Nsg1669
g54
(g55
(I0
tp2566
g57
tp2567
Rp2568
(I1
(I2
I2
tp2569
g64
I01
S'\x00\x00\x00\x00\x00\x00\x00\x00\x00\x00\x00\x00\x00\x00\x00\x00\x00\x00\x00\x00\x00\x00\x00\x00\x00\x00\x00\x00\x00\x00\xf0?'
p2570
tp2571
bsg1676
I00
sg1677
F0.1111111111111111
sg1678
I180
sg1679
I00
sbsbsg1550
Nsg40
NsS'tick2line'
p2572
g0
(g2063
g2
Ntp2573
Rp2574
(dp2575
g6
g7
sg2067
S'butt'
p2576
sg1645
Nsg26
I01
sg2069
Nsg2070
I0
sg109
Nsg847
Nsg30
Nsg17
Nsg36
I00
sg37
(dp2577
sg39
I00
sg1610
Nsg2084
F0.8
sg2085
Nsg2086
g2087
sg2088
g2089
sg1531
Nsg1533
I01
sg2090
(I0
tp2578
sg34
I0
sg1549
I01
sg2092
I01
sg2093
I01
sg76
g107
sg2094
Nsg1725
F2.01
sg1627
g1628
sg2095
I5
sg14
g4
sg2096
Nsg16
Nsg42
Nsg23
g24
sg2098
S'round'
p2579
sg29
Nsg31
Nsg35
I00
sg2100
Nsg41
Nsg2101
Nsg2102
g0
(g2103
g2
Ntp2580
Rp2581
(dp2582
g2102
I2
sg2108
Nsg2109
F1.0
sg76
g0
(g77
g2
Ntp2583
Rp2584
(dp2585
g52
I2
sg81
Nsg82
g54
(g55
(I0
tp2586
g57
tp2587
Rp2588
(I1
(I3
I3
tp2589
g64
I00
S'\x00\x00\x00\x00\x00\x00\xf0?\x00\x00\x00\x00\x00\x00\x00\x00\x00\x00\x00\x00\x00\x00\x00\x00\x00\x00\x00\x00\x00\x00\x00\x00\x00\x00\x00\x00\x00\x00\xf0?\x00\x00\x00\x00\x00\x00\x00\x00\x00\x00\x00\x00\x00\x00\x00\x00\x00\x00\x00\x00\x00\x00\x00\x00\x00\x00\x00\x00\x00\x00\xf0?'
p2590
tp2591
bsg89
g7
sg69
(dp2592
sbsg2114
I00
sg2115
g2116
sg2117
Nsg2058
g2118
sg1765
g2119
sg2120
g0
(g1663
g2
Ntp2593
Rp2594
(dp2595
g1667
I00
sg1668
Nsg1669
g54
(g55
(I0
tp2596
g57
tp2597
Rp2598
(I1
(I2
I2
tp2599
g64
I00
S'\x00\x00\x00\x00\x00\x00\x00\x80\x00\x00\x00\x00\x00\x00\x00\x00\x00\x00\x00\x00\x00\x00\x00\x80\x00\x00\x00\x00\x00\x00\xf0?'
p2600
tp2601
bsg1676
I00
sg1677
F0.1111111111111111
sg1678
I1
sg1679
I00
sbsbsg2129
g2130
sg43
Nsg40
Nsg2131
I01
sg2132
Nsg2139
VNone
p2602
sg1535
g0
(g1536
g1537
((lp2603
(lp2604
tp2605
tp2606
Rp2607
sg2146
I00
sg2147
g2148
sg2149
S'projecting'
p2608
sg2151
Nsg1550
Nsg2152
S'round'
p2609
sg2154
F3.5
sg15
I01
sg2097
Nsg1626
Nsg1611
Nsg2156
(I1
tp2610
sg2158
F1.5
sg2120
Nsbsg76
NsS'_labelsize'
p2611
S'medium'
p2612
sS'_name'
p2613
Vxtick
p2614
sS'_grid_linestyle'
p2615
g2140
sS'_labelrotation'
p2616
(Vdefault
p2617
I0
tp2618
sg1626
Nsg1627
g1628
sS'tick1line'
p2619
g0
(g2063
g2
Ntp2620
Rp2621
(dp2622
g6
g7
sg2067
S'butt'
p2623
sg1645
Nsg26
I01
sg2069
Nsg2070
I0
sg109
Nsg847
Nsg30
Nsg17
Nsg36
I00
sg37
(dp2624
sg39
I00
sg1610
Nsg2084
F0.8
sg2085
Nsg2086
g2087
sg2088
g2089
sg1531
Nsg1533
I01
sg2090
(I0
tp2625
sg34
I0
sg1549
I01
sg2092
I01
sg2093
I01
sg76
g107
sg2094
Nsg1725
F2.01
sg1627
g1628
sg2095
I5
sg14
g4
sg2096
Nsg16
Nsg42
Nsg23
g24
sg2098
S'round'
p2626
sg29
Nsg31
Nsg35
I00
sg2100
Nsg41
Nsg2101
Nsg2102
g0
(g2103
g2
Ntp2627
Rp2628
(dp2629
g2102
I3
sg2108
Nsg2109
F1.0
sg76
g0
(g77
g2
Ntp2630
Rp2631
(dp2632
g52
I2
sg81
Nsg82
g54
(g55
(I0
tp2633
g57
tp2634
Rp2635
(I1
(I3
I3
tp2636
g64
I00
S'\x00\x00\x00\x00\x00\x00\xf0?\x00\x00\x00\x00\x00\x00\x00\x00\x00\x00\x00\x00\x00\x00\x00\x00\x00\x00\x00\x00\x00\x00\x00\x00\x00\x00\x00\x00\x00\x00\xf0\xbf\x00\x00\x00\x00\x00\x00\x00\x00\x00\x00\x00\x00\x00\x00\x00\x00\x00\x00\x00\x00\x00\x00\x00\x00\x00\x00\x00\x00\x00\x00\xf0?'
p2637
tp2638
bsg89
g7
sg69
(dp2639
sbsg2114
I00
sg2115
g2116
sg2117
Nsg2058
g2118
sg1765
g2119
sg2120
g2594
sbsg2129
g2130
sg43
Nsg40
Nsg2131
I01
sg2132
Nsg2139
VNone
p2640
sg1535
g0
(g1536
g1537
((lp2641
(lp2642
tp2643
tp2644
Rp2645
sg2146
I00
sg2147
g2148
sg2149
S'projecting'
p2646
sg2151
Nsg1550
Nsg2152
S'round'
p2647
sg2154
F3.5
sg15
I01
sg2097
Nsg1626
Nsg1611
Nsg2156
(I0
tp2648
sg2158
F1.5
sg2120
Nsbsg41
Nsbag0
(g2460
g2
Ntp2649
Rp2650
(dp2651
g6
g7
sg2228
F0.8
sg14
g4
sg2464
I01
sg15
I01
sg1549
I00
sg16
Nsg34
I0
sg42
Nsg2465
F7.0
sg2466
g1628
sg2453
I00
sg1604
F3.5
sg23
g24
sg2467
g2468
sg2416
g0
(g1588
g2
Ntp2652
Rp2653
(dp2654
g6
g7
sg15
I01
sg14
g4
sg16
Nsg1592
g0
(g1593
g2
Ntp2655
Rp2656
(dp2657
g1597
(lp2658
Vsans-serif
p2659
asg1600
Nsg1601
g1602
sg1603
g1602
sg1604
F10.0
sg1605
g1602
sg1606
g1602
sbsg42
Nsg23
g24
sg1607
Nsg26
I01
sg29
Nsg109
I0
sg847
I0
sg30
Nsg31
Nsg17
Nsg35
I00
sg36
I00
sg37
(dp2660
sg1609
Nsg39
I00
sg1610
Nsg43
Nsg1611
Nsg1612
Nsg40
Nsg1531
Nsg1533
I01
sg1613
g2478
sg1615
g1709
sg1616
Nsg1535
g0
(g1536
g1537
((lp2661
(lp2662
tp2663
tp2664
Rp2665
sg34
I0
sg1622
Nsg1549
I01
sg1550
Nsg1623
F1.2
sg76
g101
sg1624
I00
sg1625
I00
sg1626
Nsg1627
g1628
sg1629
g2484
sg41
Nsbsg26
I01
sg29
Nsg2485
I00
sg30
Nsg31
Nsg2486
g2487
sg17
Nsg2488
I00
sg35
I00
sg2489
(dp2666
sg36
I00
sg37
(dp2667
sg2492
(I3
I2
tp2668
sg39
I00
sg2494
F2.01
sg1610
g1566
sg2495
I01
sg43
g1173
sg1611
Nsg2496
g2653
sg2497
g0
(g1588
g2
Ntp2669
Rp2670
(dp2671
g6
g7
sg15
I01
sg14
g4
sg16
Nsg1592
g0
(g1593
g2
Ntp2672
Rp2673
(dp2674
g1597
(lp2675
Vsans-serif
p2676
asg1600
Nsg1601
g1602
sg1603
g1602
sg1604
F10.0
sg1605
g1602
sg1606
g1602
sbsg42
Nsg23
g24
sg1607
Nsg26
I01
sg29
Nsg109
I1
sg847
I0
sg30
Nsg31
Nsg17
Nsg35
I00
sg36
I00
sg37
(dp2677
sg1609
Nsg39
I00
sg1610
Nsg43
Nsg1611
Nsg1612
Nsg40
Nsg1531
Nsg1533
I01
sg1613
g2507
sg1615
g1709
sg1616
Nsg1535
g0
(g1536
g1537
((lp2678
(lp2679
tp2680
tp2681
Rp2682
sg34
I0
sg1622
Nsg1549
I01
sg1550
Nsg1623
F1.2
sg76
g1451
sg1624
I00
sg1625
I00
sg1626
Nsg1627
g1628
sg1629
g2484
sg41
Nsbsg1531
Nsg2513
I0
sg1533
I01
sg1535
g0
(g1536
g1537
((lp2683
(lp2684
tp2685
tp2686
Rp2687
sg2519
F3.5
sg2520
F0.8
sg2521
F1.0
sg2522
g0
(g2063
g2
Ntp2688
Rp2689
(dp2690
g6
g7
sg15
I01
sg2149
S'projecting'
p2691
sg14
g4
sg2067
S'butt'
p2692
sg1645
Nsg16
Nsg42
Nsg23
g24
sg2098
S'round'
p2693
sg26
I01
sg2069
Nsg29
Nsg109
g54
(g55
(I0
tp2694
g57
tp2695
Rp2696
(I1
(I2
tp2697
g64
I00
S'\x00\x00\x00\x00\x00\x00\x00\x00\x00\x00\x00\x00\x00\x00\xf0?'
p2698
tp2699
bsg847
g54
(g55
(I0
tp2700
g57
tp2701
Rp2702
(I1
(I2
tp2703
g64
I00
S'\x00\x00\x00\x00\x00\x00\x00\x00\x00\x00\x00\x00\x00\x00\x00\x00'
p2704
tp2705
bsg30
Nsg31
Nsg17
Nsg2090
g2541
sg35
I00
sg2100
Nsg36
I00
sg37
(dp2706
sg2096
Nsg39
I00
sg2146
I00
sg1610
Nsg2101
Nsg2084
F1.0
sg2129
g2130
sg2085
Nsg1627
g2487
sg2102
g0
(g2103
g2
Ntp2707
Rp2708
(dp2709
g2102
g2107
sg2108
Nsg2109
Nsg76
g0
(g842
g2
Ntp2710
Rp2711
(dp2712
g52
I1
sg81
Nsg89
g7
sg69
(dp2713
sbsg2114
I00
sg2115
g2116
sg2117
Nsg2058
g2118
sg1765
g2119
sg2120
g2122
sbsg40
Nsg2086
g2087
sg2131
I01
sg2088
g2089
sg1531
Nsg2154
F0.0
sg1533
I01
sg2132
g54
(g55
(I0
tp2714
g57
tp2715
Rp2716
(I1
(I2
I2
tp2717
g64
I00
S'\x00\x00\x00\x00\x00\x00\x00\x00\x00\x00\x00\x00\x00\x00\x00\x00\x00\x00\x00\x00\x00\x00\x00\x00\x00\x00\x00\x00\x00\x00\xf0?'
p2718
tp2719
bsg2139
g2140
sg1535
g0
(g1536
g1537
((lp2720
(lp2721
tp2722
tp2723
Rp2724
sg34
I0
sg2147
g2148
sg2070
I0
sg2151
Nsg2095
I5
sg1549
I01
sg1550
F1.0
sg2152
S'round'
p2725
sg2093
I00
sg76
g107
sg2097
Nsg2094
Nsg2092
I00
sg1626
Nsg1611
Nsg2156
g2562
sg43
g1329
sg2158
F0.8
sg41
Nsg2120
g0
(g1663
g2
Ntp2726
Rp2727
(dp2728
g1667
I00
sg1668
Nsg1669
g54
(g55
(I0
tp2729
g57
tp2730
Rp2731
(I1
(I2
I2
tp2732
g64
I01
S'\x00\x00\x00\x00\x00\x00\x00\x00\x00\x00\x00\x00\x00\x00\x00\x00\x00\x00\x00\x00\x00\x00\x00\x00\x00\x00\x00\x00\x00\x00\xf0?'
p2733
tp2734
bsg1676
I00
sg1677
F0.1111111111111111
sg1678
I180
sg1679
I00
sbsbsg1550
Nsg40
Nsg2572
g0
(g2063
g2
Ntp2735
Rp2736
(dp2737
g6
g7
sg2067
S'butt'
p2738
sg1645
Nsg26
I01
sg2069
Nsg2070
I0
sg109
Nsg847
Nsg30
Nsg17
Nsg36
I00
sg37
(dp2739
sg39
I00
sg1610
Nsg2084
F0.8
sg2085
Nsg2086
g2087
sg2088
g2089
sg1531
Nsg1533
I01
sg2090
(I0
tp2740
sg34
I0
sg1549
I01
sg2092
I01
sg2093
I01
sg76
g107
sg2094
Nsg1725
F2.01
sg1627
g1628
sg2095
I5
sg14
g4
sg2096
Nsg16
Nsg42
Nsg23
g24
sg2098
S'round'
p2741
sg29
Nsg31
Nsg35
I00
sg2100
Nsg41
Nsg2101
Nsg2102
g0
(g2103
g2
Ntp2742
Rp2743
(dp2744
g2102
I2
sg2108
Nsg2109
F1.0
sg76
g0
(g77
g2
Ntp2745
Rp2746
(dp2747
g52
I2
sg81
Nsg82
g54
(g55
(I0
tp2748
g57
tp2749
Rp2750
(I1
(I3
I3
tp2751
g64
I00
S'\x00\x00\x00\x00\x00\x00\xf0?\x00\x00\x00\x00\x00\x00\x00\x00\x00\x00\x00\x00\x00\x00\x00\x00\x00\x00\x00\x00\x00\x00\x00\x00\x00\x00\x00\x00\x00\x00\xf0?\x00\x00\x00\x00\x00\x00\x00\x00\x00\x00\x00\x00\x00\x00\x00\x00\x00\x00\x00\x00\x00\x00\x00\x00\x00\x00\x00\x00\x00\x00\xf0?'
p2752
tp2753
bsg89
g7
sg69
(dp2754
sbsg2114
I00
sg2115
g2116
sg2117
Nsg2058
g2118
sg1765
g2119
sg2120
g2594
sbsg2129
g2130
sg43
Nsg40
Nsg2131
I01
sg2132
Nsg2139
g2602
sg1535
g0
(g1536
g1537
((lp2755
(lp2756
tp2757
tp2758
Rp2759
sg2146
I00
sg2147
g2148
sg2149
S'projecting'
p2760
sg2151
Nsg1550
Nsg2152
S'round'
p2761
sg2154
F3.5
sg15
I01
sg2097
Nsg1626
Nsg1611
Nsg2156
g2610
sg2158
F1.5
sg2120
Nsbsg76
Nsg2611
g2612
sg2613
g2614
sg2615
g2140
sg2616
(g2617
I0
tp2762
sg1626
Nsg1627
g1628
sg2619
g0
(g2063
g2
Ntp2763
Rp2764
(dp2765
g6
g7
sg2067
S'butt'
p2766
sg1645
Nsg26
I01
sg2069
Nsg2070
I0
sg109
Nsg847
Nsg30
Nsg17
Nsg36
I00
sg37
(dp2767
sg39
I00
sg1610
Nsg2084
F0.8
sg2085
Nsg2086
g2087
sg2088
g2089
sg1531
Nsg1533
I01
sg2090
(I0
tp2768
sg34
I0
sg1549
I01
sg2092
I01
sg2093
I01
sg76
g107
sg2094
Nsg1725
F2.01
sg1627
g1628
sg2095
I5
sg14
g4
sg2096
Nsg16
Nsg42
Nsg23
g24
sg2098
S'round'
p2769
sg29
Nsg31
Nsg35
I00
sg2100
Nsg41
Nsg2101
Nsg2102
g0
(g2103
g2
Ntp2770
Rp2771
(dp2772
g2102
I3
sg2108
Nsg2109
F1.0
sg76
g0
(g77
g2
Ntp2773
Rp2774
(dp2775
g52
I2
sg81
Nsg82
g54
(g55
(I0
tp2776
g57
tp2777
Rp2778
(I1
(I3
I3
tp2779
g64
I00
S'\x00\x00\x00\x00\x00\x00\xf0?\x00\x00\x00\x00\x00\x00\x00\x00\x00\x00\x00\x00\x00\x00\x00\x00\x00\x00\x00\x00\x00\x00\x00\x00\x00\x00\x00\x00\x00\x00\xf0\xbf\x00\x00\x00\x00\x00\x00\x00\x00\x00\x00\x00\x00\x00\x00\x00\x00\x00\x00\x00\x00\x00\x00\x00\x00\x00\x00\x00\x00\x00\x00\xf0?'
p2780
tp2781
bsg89
g7
sg69
(dp2782
sbsg2114
I00
sg2115
g2116
sg2117
Nsg2058
g2118
sg1765
g2119
sg2120
g2594
sbsg2129
g2130
sg43
Nsg40
Nsg2131
I01
sg2132
Nsg2139
g2640
sg1535
g0
(g1536
g1537
((lp2783
(lp2784
tp2785
tp2786
Rp2787
sg2146
I00
sg2147
g2148
sg2149
S'projecting'
p2788
sg2151
Nsg1550
Nsg2152
S'round'
p2789
sg2154
F3.5
sg15
I01
sg2097
Nsg1626
Nsg1611
Nsg2156
g2648
sg2158
F1.5
sg2120
Nsbsg41
NsbasS'isDefault_majloc'
p2790
I01
sg1524
g0
(g1525
g2
Ntp2791
Rp2792
(dp2793
g1529
g1530
sbsg1531
Nsg1533
I01
sS'_autolabelpos'
p2794
I01
sg1535
g0
(g1536
g1537
((lp2795
(lp2796
tp2797
tp2798
Rp2799
sg34
I0
sS'converter'
p2800
Nsg1549
I00
sg1550
NsS'offset_text_position'
p2801
Vbottom
p2802
sg76
NsS'label_position'
p2803
Vbottom
p2804
sg1626
Nsg1611
Nsg2095
I15
sS'minorTicks'
p2805
(lp2806
g0
(g2460
g2
Ntp2807
Rp2808
(dp2809
g6
g7
sg2228
F0.6
sg14
g4
sg2464
I01
sg15
I01
sg1549
I00
sg16
Nsg34
I0
sg42
Nsg2465
F5.4
sg2466
g1628
sg2453
I00
sg1604
F2.0
sg23
g24
sg2467
g2468
sg2416
g0
(g1588
g2
Ntp2810
Rp2811
(dp2812
g6
g7
sg15
I01
sg14
g4
sg16
Nsg1592
g0
(g1593
g2
Ntp2813
Rp2814
(dp2815
g1597
(lp2816
Vsans-serif
p2817
asg1600
Nsg1601
g1602
sg1603
g1602
sg1604
F10.0
sg1605
g1602
sg1606
g1602
sbsg42
Nsg23
g24
sg1607
Nsg26
I01
sg29
Nsg109
I0
sg847
I0
sg30
Nsg31
Nsg17
Nsg35
I00
sg36
I00
sg37
(dp2818
sg1609
Nsg39
I00
sg1610
Nsg43
Nsg1611
Nsg1612
Nsg40
Nsg1531
Nsg1533
I01
sg1613
g2478
sg1615
g1709
sg1616
Nsg1535
g0
(g1536
g1537
((lp2819
(lp2820
tp2821
tp2822
Rp2823
sg34
I0
sg1622
Nsg1549
I01
sg1550
Nsg1623
F1.2
sg76
g1478
sg1624
I00
sg1625
I00
sg1626
Nsg1627
g1628
sg1629
g2484
sg41
Nsbsg26
I01
sg29
Nsg2485
I00
sg30
Nsg31
Nsg2486
g2487
sg17
Nsg2488
I00
sg35
I00
sg2489
(dp2824
sg36
I00
sg37
(dp2825
sg2492
(I3
I2
tp2826
sg39
I00
sg2494
I2
sg1610
g1566
sg2495
I01
sg43
g686
sg1611
Nsg2496
g2811
sg2497
g0
(g1588
g2
Ntp2827
Rp2828
(dp2829
g6
g7
sg15
I01
sg14
g4
sg16
Nsg1592
g0
(g1593
g2
Ntp2830
Rp2831
(dp2832
g1597
(lp2833
Vsans-serif
p2834
asg1600
Nsg1601
g1602
sg1603
g1602
sg1604
F10.0
sg1605
g1602
sg1606
g1602
sbsg42
Nsg23
g24
sg1607
Nsg26
I01
sg29
Nsg109
I1
sg847
I0
sg30
Nsg31
Nsg17
Nsg35
I00
sg36
I00
sg37
(dp2835
sg1609
Nsg39
I00
sg1610
Nsg43
Nsg1611
Nsg1612
Nsg40
Nsg1531
Nsg1533
I01
sg1613
g2507
sg1615
g1709
sg1616
Nsg1535
g0
(g1536
g1537
((lp2836
(lp2837
tp2838
tp2839
Rp2840
sg34
I0
sg1622
Nsg1549
I01
sg1550
Nsg1623
F1.2
sg76
g1469
sg1624
I00
sg1625
I00
sg1626
Nsg1627
g1628
sg1629
g2484
sg41
Nsbsg1531
Nsg2513
I0
sg1533
I01
sg1535
g0
(g1536
g1537
((lp2841
(lp2842
tp2843
tp2844
Rp2845
sg2519
F3.4
sg2520
F0.8
sg2521
F1.0
sg2522
g0
(g2063
g2
Ntp2846
Rp2847
(dp2848
g6
g7
sg15
I01
sg2149
S'projecting'
p2849
sg14
g4
sg2067
S'butt'
p2850
sg1645
Nsg16
Nsg42
Nsg23
g24
sg2098
S'round'
p2851
sg26
I01
sg2069
Nsg29
Nsg109
g54
(g55
(I0
tp2852
g57
tp2853
Rp2854
(I1
(I2
tp2855
g64
I00
S'\x00\x00\x00\x00\x00\x00\x00\x00\x00\x00\x00\x00\x00\x00\xf0?'
p2856
tp2857
bsg847
g54
(g55
(I0
tp2858
g57
tp2859
Rp2860
(I1
(I2
tp2861
g64
I00
S'\x00\x00\x00\x00\x00\x00\x00\x00\x00\x00\x00\x00\x00\x00\x00\x00'
p2862
tp2863
bsg30
Nsg31
Nsg17
Nsg2090
g2541
sg35
I00
sg2100
Nsg36
I00
sg37
(dp2864
sg2096
Nsg39
I00
sg2146
I00
sg1610
Nsg2101
Nsg2084
F1.0
sg2129
g2130
sg2085
Nsg1627
g2487
sg2102
g0
(g2103
g2
Ntp2865
Rp2866
(dp2867
g2102
g2107
sg2108
Nsg2109
Nsg76
g0
(g842
g2
Ntp2868
Rp2869
(dp2870
g52
I1
sg81
Nsg89
g7
sg69
(dp2871
sbsg2114
I00
sg2115
g2116
sg2117
Nsg2058
g2118
sg1765
g2119
sg2120
g2122
sbsg40
Nsg2086
g2087
sg2131
I01
sg2088
g2089
sg1531
Nsg2154
F0.0
sg1533
I01
sg2132
g54
(g55
(I0
tp2872
g57
tp2873
Rp2874
(I1
(I2
I2
tp2875
g64
I00
S'\x00\x00\x00\x00\x00\x00\x00\x00\x00\x00\x00\x00\x00\x00\x00\x00\x00\x00\x00\x00\x00\x00\x00\x00\x00\x00\x00\x00\x00\x00\xf0?'
p2876
tp2877
bsg2139
g2140
sg1535
g0
(g1536
g1537
((lp2878
(lp2879
tp2880
tp2881
Rp2882
sg34
I0
sg2147
g2148
sg2070
I0
sg2151
Nsg2095
I5
sg1549
I01
sg1550
F1.0
sg2152
S'round'
p2883
sg2093
I00
sg76
g107
sg2097
Nsg2094
Nsg2092
I00
sg1626
Nsg1611
Nsg2156
g2562
sg43
g196
sg2158
F0.8
sg41
Nsg2120
g0
(g1663
g2
Ntp2884
Rp2885
(dp2886
g1667
I00
sg1668
Nsg1669
g54
(g55
(I0
tp2887
g57
tp2888
Rp2889
(I1
(I2
I2
tp2890
g64
I01
S'\x00\x00\x00\x00\x00\x00\x00\x00\x00\x00\x00\x00\x00\x00\x00\x00\x00\x00\x00\x00\x00\x00\x00\x00\x00\x00\x00\x00\x00\x00\xf0?'
p2891
tp2892
bsg1676
I00
sg1677
F0.1111111111111111
sg1678
I180
sg1679
I00
sbsbsg1550
Nsg40
Nsg2572
g0
(g2063
g2
Ntp2893
Rp2894
(dp2895
g6
g7
sg2067
S'butt'
p2896
sg1645
Nsg26
I01
sg2069
Nsg2070
I0
sg109
Nsg847
Nsg30
Nsg17
Nsg36
I00
sg37
(dp2897
sg39
I00
sg1610
Nsg2084
F0.6
sg2085
Nsg2086
g2087
sg2088
g2089
sg1531
Nsg1533
I01
sg2090
(I0
tp2898
sg34
I0
sg1549
I01
sg2092
I01
sg2093
I01
sg76
g107
sg2094
Nsg1725
I2
sg1627
g1628
sg2095
I5
sg14
g4
sg2096
Nsg16
Nsg42
Nsg23
g24
sg2098
S'round'
p2899
sg29
Nsg31
Nsg35
I00
sg2100
Nsg41
Nsg2101
Nsg2102
g0
(g2103
g2
Ntp2900
Rp2901
(dp2902
g2102
I2
sg2108
Nsg2109
F1.0
sg76
g0
(g77
g2
Ntp2903
Rp2904
(dp2905
g52
I2
sg81
Nsg82
g54
(g55
(I0
tp2906
g57
tp2907
Rp2908
(I1
(I3
I3
tp2909
g64
I00
S'\x00\x00\x00\x00\x00\x00\xf0?\x00\x00\x00\x00\x00\x00\x00\x00\x00\x00\x00\x00\x00\x00\x00\x00\x00\x00\x00\x00\x00\x00\x00\x00\x00\x00\x00\x00\x00\x00\xf0?\x00\x00\x00\x00\x00\x00\x00\x00\x00\x00\x00\x00\x00\x00\x00\x00\x00\x00\x00\x00\x00\x00\x00\x00\x00\x00\x00\x00\x00\x00\xf0?'
p2910
tp2911
bsg89
g7
sg69
(dp2912
sbsg2114
I00
sg2115
g2116
sg2117
Nsg2058
g2118
sg1765
g2119
sg2120
g2594
sbsg2129
g2130
sg43
Nsg40
Nsg2131
I01
sg2132
Nsg2139
g2602
sg1535
g0
(g1536
g1537
((lp2913
(lp2914
tp2915
tp2916
Rp2917
sg2146
I00
sg2147
g2148
sg2149
S'projecting'
p2918
sg2151
Nsg1550
Nsg2152
S'round'
p2919
sg2154
F2.0
sg15
I01
sg2097
Nsg1626
Nsg1611
Nsg2156
g2610
sg2158
F1.5
sg2120
Nsbsg76
Nsg2611
g2612
sg2613
g2614
sg2615
g2140
sg2616
(g2617
I0
tp2920
sg1626
Nsg1627
g1628
sg2619
g0
(g2063
g2
Ntp2921
Rp2922
(dp2923
g6
g7
sg2067
S'butt'
p2924
sg1645
Nsg26
I01
sg2069
Nsg2070
I0
sg109
Nsg847
Nsg30
Nsg17
Nsg36
I00
sg37
(dp2925
sg39
I00
sg1610
Nsg2084
F0.6
sg2085
Nsg2086
g2087
sg2088
g2089
sg1531
Nsg1533
I01
sg2090
(I0
tp2926
sg34
I0
sg1549
I01
sg2092
I01
sg2093
I01
sg76
g107
sg2094
Nsg1725
I2
sg1627
g1628
sg2095
I5
sg14
g4
sg2096
Nsg16
Nsg42
Nsg23
g24
sg2098
S'round'
p2927
sg29
Nsg31
Nsg35
I00
sg2100
Nsg41
Nsg2101
Nsg2102
g0
(g2103
g2
Ntp2928
Rp2929
(dp2930
g2102
I3
sg2108
Nsg2109
F1.0
sg76
g0
(g77
g2
Ntp2931
Rp2932
(dp2933
g52
I2
sg81
Nsg82
g54
(g55
(I0
tp2934
g57
tp2935
Rp2936
(I1
(I3
I3
tp2937
g64
I00
S'\x00\x00\x00\x00\x00\x00\xf0?\x00\x00\x00\x00\x00\x00\x00\x00\x00\x00\x00\x00\x00\x00\x00\x00\x00\x00\x00\x00\x00\x00\x00\x00\x00\x00\x00\x00\x00\x00\xf0\xbf\x00\x00\x00\x00\x00\x00\x00\x00\x00\x00\x00\x00\x00\x00\x00\x00\x00\x00\x00\x00\x00\x00\x00\x00\x00\x00\x00\x00\x00\x00\xf0?'
p2938
tp2939
bsg89
g7
sg69
(dp2940
sbsg2114
I00
sg2115
g2116
sg2117
Nsg2058
g2118
sg1765
g2119
sg2120
g2594
sbsg2129
g2130
sg43
Nsg40
Nsg2131
I01
sg2132
Nsg2139
g2640
sg1535
g0
(g1536
g1537
((lp2941
(lp2942
tp2943
tp2944
Rp2945
sg2146
I00
sg2147
g2148
sg2149
S'projecting'
p2946
sg2151
Nsg1550
Nsg2152
S'round'
p2947
sg2154
F2.0
sg15
I01
sg2097
Nsg1626
Nsg1611
Nsg2156
g2648
sg2158
F1.5
sg2120
Nsbsg41
Nsbasg41
NsS'_minor_tick_kw'
p2948
(dp2949
g2450
I01
sg2451
I01
sg2452
I00
sg2454
I00
ssS'isDefault_minfmt'
p2950
I01
sbsS'_navigate_mode'
p2951
Nsg41
NsS'transAxes'
p2952
g112
sS'_connected'
p2953
(dp2954
sS'fmt_ydata'
p2955
NsS'dataLim'
p2956
g0
(g48
g2
Ntp2957
Rp2958
(dp2959
g52
I0
sg53
g54
(g55
(I0
tp2960
g57
tp2961
Rp2962
(I1
(I2
tp2963
g64
I00
S'\x00\x00\x00\x00\x00\x00\xf0?333333\x0f@'
p2964
tp2965
bsg69
(dp2966
sg128
g54
(g55
(I0
tp2967
g57
tp2968
Rp2969
(I1
(I2
I2
tp2970
g64
I00
S'\x00\x00\x00\x00\x00\x00\xf0\x7f\x00\x00\x00\x00\x00\x00\xf0\x7f\x00\x00\x00\x00\x00\x00\xf0\xff\x00\x00\x00\x00\x00\x00\xf0\xff'
p2971
tp2972
bsg135
g54
(g55
(I0
tp2973
g57
tp2974
Rp2975
(I1
(I2
I2
tp2976
g64
I00
S'\x00\x00\x00\x00\x00\x00\xf0?333333\x0f@\x00\x00\x00\x00\x00\x00\x08@ffffff\x18@'
p2977
tp2978
bsg142
I01
sg89
g7
sbsS'transData'
p2979
g785
sg40
NsS'_sharey'
p2980
NsS'_sharex'
p2981
NsS'_ymargin'
p2982
F0.05
sS'_axes_locator'
p2983
Nsg1535
g0
(g1536
g1537
((lp2984
(lp2985
tp2986
tp2987
Rp2988
sS'numCols'
p2989
I1
sg1550
Nsg1532
NsS'yaxis'
p2990
g0
(cmatplotlib.axis
YAxis
p2991
g2
Ntp2992
Rp2993
(dp2994
g6
g7
sg2346
g0
(g2347
g2
Ntp2995
Rp2996
(dp2997
g2351
g0
(g2352
g2
Ntp2998
Rp2999
(dp3000
g2356
I2
sg2357
I00
sg2358
g2359
sg2360
g54
(g55
(I0
tp3001
g57
tp3002
Rp3003
(I1
(I5
tp3004
g64
I00
S'\x00\x00\x00\x00\x00\x00\xf0?\x00\x00\x00\x00\x00\x00\x00@\x00\x00\x00\x00\x00\x00\x04@\x00\x00\x00\x00\x00\x00\x14@\x00\x00\x00\x00\x00\x00$@'
p3005
tp3006
bsg2367
Nsg2368
g54
(g55
(I0
tp3007
g57
tp3008
Rp3009
(I1
(I10
tp3010
g64
I00
S'\x9a\x99\x99\x99\x99\x99\xb9?\x9a\x99\x99\x99\x99\x99\xc9?\x00\x00\x00\x00\x00\x00\xd0?\x00\x00\x00\x00\x00\x00\xe0?\x00\x00\x00\x00\x00\x00\xf0?\x00\x00\x00\x00\x00\x00\x00@\x00\x00\x00\x00\x00\x00\x04@\x00\x00\x00\x00\x00\x00\x14@\x00\x00\x00\x00\x00\x00$@\x00\x00\x00\x00\x00\x004@'
p3011
tp3012
bsg2375
I00
sg2376
g2993
sbsg2377
g0
(g2378
g2
Ntp3013
Rp3014
(dp3015
g2382
g2383
sg2384
I0
sg2385
I01
sg2386
I00
sg2387
g7
sg2388
I00
sg2389
I4
sg2390
I0
sg1624
I00
sg2391
I01
sg2376
g2993
sbsbsg2392
I01
sg2393
g0
(g2394
g2
Ntp3016
Rp3017
sg14
g4
sg15
I01
sg2397
I00
sg16
Nsg42
Nsg2398
I00
sg23
g24
sg26
I01
sg29
Nsg2399
g0
(g1588
g2
Ntp3018
Rp3019
(dp3020
g6
g7
sg15
I01
sg14
g4
sg16
Nsg1592
g0
(g1593
g2
Ntp3021
Rp3022
(dp3023
g1597
(lp3024
Vsans-serif
p3025
asg1600
Nsg1601
g1602
sg1603
g1602
sg1604
F10.0
sg1605
g1602
sg1606
g1602
sbsg42
Nsg23
g24
sg1607
Nsg26
I01
sg29
Nsg109
F0.5
sg847
I0
sg30
Nsg31
Nsg17
Nsg35
I00
sg36
I00
sg37
(dp3026
sg1609
Nsg39
I00
sg1610
Nsg43
Nsg1611
Nsg1612
Nsg40
Nsg1531
Nsg1533
I01
sg1613
Vbaseline
p3027
sg1615
g1709
sg1616
Nsg1535
g0
(g1536
g1537
((lp3028
(lp3029
tp3030
tp3031
Rp3032
sg34
I0
sg1622
Nsg1549
I01
sg1550
Nsg1623
F1.2
sg76
g1207
sg1624
I00
sg1625
I00
sg1626
Nsg1627
g1628
sg1629
Vleft
p3033
sg41
Nsbsg30
Nsg31
Nsg17
Nsg2416
g0
(g1588
g2
Ntp3034
Rp3035
(dp3036
g6
g7
sg15
I01
sg14
g4
sg16
Nsg1592
g0
(g1593
g2
Ntp3037
Rp3038
(dp3039
g1597
(lp3040
Vsans-serif
p3041
asg1600
Nsg1601
g1602
sg1603
g1602
sg1604
F10.0
sg1605
g1602
sg1606
g1602
sbsg42
Nsg23
g24
sg1607
Nsg26
I01
sg29
Nsg109
F0.5
sg847
I0
sg30
Nsg31
Nsg17
Nsg35
I00
sg36
I00
sg37
(dp3042
sg1609
Nsg39
I00
sg1610
Nsg43
Nsg1611
Nsg1612
Vanchor
p3043
sg40
Nsg1531
Nsg1533
I01
sg1613
Vbottom
p3044
sg1615
g7
sg1616
Nsg1535
g0
(g1536
g1537
((lp3045
(lp3046
tp3047
tp3048
Rp3049
sg34
I0
sg1622
Vvertical
p3050
sg1549
I01
sg1550
Nsg1623
F1.2
sg76
g1199
sg1624
I00
sg1625
I00
sg1626
Nsg1627
g1628
sg1629
Vcenter
p3051
sg41
Nsbsg35
I00
sg2433
I01
sg36
I00
sg37
(dp3052
sg2435
Nsg39
I00
sg2436
g0
(g2347
g2
Ntp3053
Rp3054
(dp3055
g2351
g0
(g2440
g2
Ntp3056
Rp3057
(dp3058
g2376
g2993
sbsg2377
g0
(g2444
g2
Ntp3059
Rp3060
(dp3061
g2376
g2993
sbsbsg1610
g1566
sg2448
(dp3062
g2450
I01
sg2451
I01
sg2452
I00
sg2453
I00
sg2454
I00
ssg2455
I01
sg43
g756
sg40
Nsg2456
I00
sg2457
F4.0
sg2458
(lp3063
g0
(cmatplotlib.axis
YTick
p3064
g2
Ntp3065
Rp3066
(dp3067
g6
g7
sg2228
F0.8
sg14
g4
sg2464
I01
sg15
I01
sg1549
I00
sg16
Nsg34
I0
sg42
Nsg2465
F7.0
sg2466
g1628
sg2453
I00
sg1604
F3.5
sg23
g24
sg2467
g2468
sg2416
g0
(g1588
g2
Ntp3068
Rp3069
(dp3070
g6
g7
sg15
I01
sg14
g4
sg16
Nsg1592
g0
(g1593
g2
Ntp3071
Rp3072
(dp3073
g1597
(lp3074
Vsans-serif
p3075
asg1600
Nsg1601
g1602
sg1603
g1602
sg1604
F10.0
sg1605
g1602
sg1606
g1602
sbsg42
Nsg23
g24
sg1607
Nsg26
I01
sg29
Nsg109
I0
sg847
I0
sg30
Nsg31
Nsg17
Nsg35
I00
sg36
I00
sg37
(dp3076
sg1609
Nsg39
I00
sg1610
Nsg43
Nsg1611
Nsg1612
Nsg40
Nsg1531
Nsg1533
I01
sg1613
S'center_baseline'
p3077
sg1615
g1709
sg1616
Nsg1535
g0
(g1536
g1537
((lp3078
(lp3079
tp3080
tp3081
Rp3082
sg34
I0
sg1622
Nsg1549
I01
sg1550
Nsg1623
F1.2
sg76
g875
sg1624
I00
sg1625
I00
sg1626
Nsg1627
g1628
sg1629
Vright
p3083
sg41
Nsbsg26
I01
sg29
Nsg2485
I00
sg30
Nsg31
Nsg2486
g2487
sg17
Nsg2488
I00
sg35
I00
sg2489
(dp3084
sg36
I00
sg37
(dp3085
sg2492
(I0
I1
tp3086
sg39
I00
sg2494
F2.01
sg1610
g1566
sg2495
I01
sg43
g1095
sg1611
Nsg2496
g3069
sg2497
g0
(g1588
g2
Ntp3087
Rp3088
(dp3089
g6
g7
sg15
I01
sg14
g4
sg16
Nsg1592
g0
(g1593
g2
Ntp3090
Rp3091
(dp3092
g1597
(lp3093
Vsans-serif
p3094
asg1600
Nsg1601
g1602
sg1603
g1602
sg1604
F10.0
sg1605
g1602
sg1606
g1602
sbsg42
Nsg23
g24
sg1607
Nsg26
I01
sg29
Nsg109
I0
sg847
I1
sg30
Nsg31
Nsg17
Nsg35
I00
sg36
I00
sg37
(dp3095
sg1609
Nsg39
I00
sg1610
Nsg43
Nsg1611
Nsg1612
Nsg40
Nsg1531
Nsg1533
I01
sg1613
g3077
sg1615
g1709
sg1616
Nsg1535
g0
(g1536
g1537
((lp3096
(lp3097
tp3098
tp3099
Rp3100
sg34
I0
sg1622
Nsg1549
I01
sg1550
Nsg1623
F1.2
sg76
g902
sg1624
I00
sg1625
I00
sg1626
Nsg1627
g1628
sg1629
Vleft
p3101
sg41
Nsbsg1531
Nsg2513
I0
sg1533
I01
sg1535
g0
(g1536
g1537
((lp3102
(lp3103
tp3104
tp3105
Rp3106
sg2519
F3.5
sg2520
F0.8
sg2521
F1.0
sg2522
g0
(g2063
g2
Ntp3107
Rp3108
(dp3109
g6
g7
sg15
I01
sg2149
S'projecting'
p3110
sg14
g4
sg2067
S'butt'
p3111
sg1645
Nsg16
Nsg42
Nsg23
g24
sg2098
S'round'
p3112
sg26
I01
sg2069
Nsg29
Nsg109
g54
(g55
(I0
tp3113
g57
tp3114
Rp3115
(I1
(I2
tp3116
g64
I00
S'\x00\x00\x00\x00\x00\x00\x00\x00\x00\x00\x00\x00\x00\x00\x00\x00'
p3117
tp3118
bsg847
g54
(g55
(I0
tp3119
g57
tp3120
Rp3121
(I1
(I2
tp3122
g64
I00
S'\x00\x00\x00\x00\x00\x00\x00\x00\x00\x00\x00\x00\x00\x00\xf0?'
p3123
tp3124
bsg30
Nsg31
Nsg17
Nsg2090
(I0
I1
tp3125
sg35
I00
sg2100
Nsg36
I00
sg37
(dp3126
sg2096
Nsg39
I00
sg2146
I00
sg1610
Nsg2101
Nsg2084
F1.0
sg2129
g2130
sg2085
Nsg1627
g2487
sg2102
g0
(g2103
g2
Ntp3127
Rp3128
(dp3129
g2102
g2107
sg2108
Nsg2109
Nsg76
g0
(g842
g2
Ntp3130
Rp3131
(dp3132
g52
I1
sg81
Nsg89
g7
sg69
(dp3133
sbsg2114
I00
sg2115
g2116
sg2117
Nsg2058
g2118
sg1765
g2119
sg2120
g2122
sbsg40
Nsg2086
g2087
sg2131
I01
sg2088
g2089
sg1531
Nsg2154
F0.0
sg1533
I01
sg2132
g54
(g55
(I0
tp3134
g57
tp3135
Rp3136
(I1
(I2
I2
tp3137
g64
I00
S'\x00\x00\x00\x00\x00\x00\x00\x00\x00\x00\x00\x00\x00\x00\x00\x00\x00\x00\x00\x00\x00\x00\xf0?\x00\x00\x00\x00\x00\x00\x00\x00'
p3138
tp3139
bsg2139
g2140
sg1535
g0
(g1536
g1537
((lp3140
(lp3141
tp3142
tp3143
Rp3144
sg34
I0
sg2147
g2148
sg2070
I0
sg2151
Nsg2095
I5
sg1549
I01
sg1550
F1.0
sg2152
S'round'
p3145
sg2093
I00
sg76
g782
sg2097
Nsg2094
Nsg2092
I00
sg1626
Nsg1611
Nsg2156
(I0
I0
tp3146
sg43
g476
sg2158
F0.8
sg41
Nsg2120
g0
(g1663
g2
Ntp3147
Rp3148
(dp3149
g1667
I00
sg1668
Nsg1669
g54
(g55
(I0
tp3150
g57
tp3151
Rp3152
(I1
(I2
I2
tp3153
g64
I01
S'\x00\x00\x00\x00\x00\x00\x00\x00\x00\x00\x00\x00\x00\x00\xf0?\x00\x00\x00\x00\x00\x00\x00\x00\x00\x00\x00\x00\x00\x00\x00\x00'
p3154
tp3155
bsg1676
I00
sg1677
F0.1111111111111111
sg1678
I180
sg1679
I00
sbsbsg1550
Nsg40
Nsg2572
g0
(g2063
g2
Ntp3156
Rp3157
(dp3158
g6
g7
sg2067
S'butt'
p3159
sg1645
Nsg26
I01
sg2069
Nsg2070
I0
sg109
Nsg847
Nsg30
Nsg17
Nsg36
I00
sg37
(dp3160
sg39
I00
sg1610
Nsg2084
F0.8
sg2085
Nsg2086
g2087
sg2088
g2089
sg1531
Nsg1533
I01
sg2090
(I1
tp3161
sg34
I0
sg1549
I01
sg2092
I01
sg2093
I01
sg76
g782
sg2094
Nsg1725
F2.01
sg1627
g1628
sg2095
I5
sg14
g4
sg2096
Nsg16
Nsg42
Nsg23
g24
sg2098
S'round'
p3162
sg29
Nsg31
Nsg35
I00
sg2100
Nsg41
Nsg2101
Nsg2102
g0
(g2103
g2
Ntp3163
Rp3164
(dp3165
g2102
I1
sg2108
Nsg2109
F1.0
sg76
g0
(g77
g2
Ntp3166
Rp3167
(dp3168
g52
I2
sg81
Nsg82
g54
(g55
(I0
tp3169
g57
tp3170
Rp3171
(I1
(I3
I3
tp3172
g64
I00
S'\x00\x00\x00\x00\x00\x00\xf0?\x00\x00\x00\x00\x00\x00\x00\x00\x00\x00\x00\x00\x00\x00\x00\x00\x00\x00\x00\x00\x00\x00\x00\x00\x00\x00\x00\x00\x00\x00\xf0?\x00\x00\x00\x00\x00\x00\x00\x00\x00\x00\x00\x00\x00\x00\x00\x00\x00\x00\x00\x00\x00\x00\x00\x00\x00\x00\x00\x00\x00\x00\xf0?'
p3173
tp3174
bsg89
g7
sg69
(dp3175
sbsg2114
I00
sg2115
g2116
sg2117
Nsg2058
g2118
sg1765
g2119
sg2120
g0
(g1663
g2
Ntp3176
Rp3177
(dp3178
g1667
I00
sg1668
Nsg1669
g54
(g55
(I0
tp3179
g57
tp3180
Rp3181
(I1
(I2
I2
tp3182
g64
I00
S'\x00\x00\x00\x00\x00\x00\x00\x00\x00\x00\x00\x00\x00\x00\x00\x00\x00\x00\x00\x00\x00\x00\xf0?\x00\x00\x00\x00\x00\x00\x00\x00'
p3183
tp3184
bsg1676
I00
sg1677
F0.1111111111111111
sg1678
I1
sg1679
I00
sbsbsg2129
g2130
sg43
Nsg40
Nsg2131
I01
sg2132
Nsg2139
VNone
p3185
sg1535
g0
(g1536
g1537
((lp3186
(lp3187
tp3188
tp3189
Rp3190
sg2146
I00
sg2147
g2148
sg2149
S'projecting'
p3191
sg2151
Nsg1550
Nsg2152
S'round'
p3192
sg2154
F3.5
sg15
I01
sg2097
Nsg1626
Nsg1611
Nsg2156
(I0
tp3193
sg2158
F1.5
sg2120
Nsbsg76
Nsg2611
S'medium'
p3194
sg2613
Vytick
p3195
sg2615
g2140
sg2616
(g2617
I0
tp3196
sg1626
Nsg1627
g1628
sg2619
g0
(g2063
g2
Ntp3197
Rp3198
(dp3199
g6
g7
sg2067
S'butt'
p3200
sg1645
Nsg26
I01
sg2069
Nsg2070
I0
sg109
Nsg847
Nsg30
Nsg17
Nsg36
I00
sg37
(dp3201
sg39
I00
sg1610
Nsg2084
F0.8
sg2085
Nsg2086
g2087
sg2088
g2089
sg1531
Nsg1533
I01
sg2090
(I0
tp3202
sg34
I0
sg1549
I01
sg2092
I01
sg2093
I01
sg76
g782
sg2094
Nsg1725
F2.01
sg1627
g1628
sg2095
I5
sg14
g4
sg2096
Nsg16
Nsg42
Nsg23
g24
sg2098
S'round'
p3203
sg29
Nsg31
Nsg35
I00
sg2100
Nsg41
Nsg2101
Nsg2102
g0
(g2103
g2
Ntp3204
Rp3205
(dp3206
g2102
I0
sg2108
Nsg2109
F1.0
sg76
g0
(g77
g2
Ntp3207
Rp3208
(dp3209
g52
I2
sg81
Nsg82
g54
(g55
(I0
tp3210
g57
tp3211
Rp3212
(I1
(I3
I3
tp3213
g64
I00
S'\x00\x00\x00\x00\x00\x00\xf0\xbf\x00\x00\x00\x00\x00\x00\x00\x00\x00\x00\x00\x00\x00\x00\x00\x00\x00\x00\x00\x00\x00\x00\x00\x00\x00\x00\x00\x00\x00\x00\xf0?\x00\x00\x00\x00\x00\x00\x00\x00\x00\x00\x00\x00\x00\x00\x00\x00\x00\x00\x00\x00\x00\x00\x00\x00\x00\x00\x00\x00\x00\x00\xf0?'
p3214
tp3215
bsg89
g7
sg69
(dp3216
sbsg2114
I00
sg2115
g2116
sg2117
Nsg2058
g2118
sg1765
g2119
sg2120
g3177
sbsg2129
g2130
sg43
Nsg40
Nsg2131
I01
sg2132
Nsg2139
VNone
p3217
sg1535
g0
(g1536
g1537
((lp3218
(lp3219
tp3220
tp3221
Rp3222
sg2146
I00
sg2147
g2148
sg2149
S'projecting'
p3223
sg2151
Nsg1550
Nsg2152
S'round'
p3224
sg2154
F3.5
sg15
I01
sg2097
Nsg1626
Nsg1611
Nsg2156
(I0
tp3225
sg2158
F1.5
sg2120
Nsbsg41
Nsbag0
(g3064
g2
Ntp3226
Rp3227
(dp3228
g6
g7
sg2228
F0.8
sg14
g4
sg2464
I01
sg15
I01
sg1549
I00
sg16
Nsg34
I0
sg42
Nsg2465
F7.0
sg2466
g1628
sg2453
I00
sg1604
F3.5
sg23
g24
sg2467
g2468
sg2416
g0
(g1588
g2
Ntp3229
Rp3230
(dp3231
g6
g7
sg15
I01
sg14
g4
sg16
Nsg1592
g0
(g1593
g2
Ntp3232
Rp3233
(dp3234
g1597
(lp3235
Vsans-serif
p3236
asg1600
Nsg1601
g1602
sg1603
g1602
sg1604
F10.0
sg1605
g1602
sg1606
g1602
sbsg42
Nsg23
g24
sg1607
Nsg26
I01
sg29
Nsg109
I0
sg847
I0
sg30
Nsg31
Nsg17
Nsg35
I00
sg36
I00
sg37
(dp3237
sg1609
Nsg39
I00
sg1610
Nsg43
Nsg1611
Nsg1612
Nsg40
Nsg1531
Nsg1533
I01
sg1613
g3077
sg1615
g1709
sg1616
Nsg1535
g0
(g1536
g1537
((lp3238
(lp3239
tp3240
tp3241
Rp3242
sg34
I0
sg1622
Nsg1549
I01
sg1550
Nsg1623
F1.2
sg76
g866
sg1624
I00
sg1625
I00
sg1626
Nsg1627
g1628
sg1629
g3083
sg41
Nsbsg26
I01
sg29
Nsg2485
I00
sg30
Nsg31
Nsg2486
g2487
sg17
Nsg2488
I00
sg35
I00
sg2489
(dp3243
sg36
I00
sg37
(dp3244
sg2492
(I0
I1
tp3245
sg39
I00
sg2494
F2.01
sg1610
g1566
sg2495
I01
sg43
g336
sg1611
Nsg2496
g3230
sg2497
g0
(g1588
g2
Ntp3246
Rp3247
(dp3248
g6
g7
sg15
I01
sg14
g4
sg16
Nsg1592
g0
(g1593
g2
Ntp3249
Rp3250
(dp3251
g1597
(lp3252
Vsans-serif
p3253
asg1600
Nsg1601
g1602
sg1603
g1602
sg1604
F10.0
sg1605
g1602
sg1606
g1602
sbsg42
Nsg23
g24
sg1607
Nsg26
I01
sg29
Nsg109
I0
sg847
I1
sg30
Nsg31
Nsg17
Nsg35
I00
sg36
I00
sg37
(dp3254
sg1609
Nsg39
I00
sg1610
Nsg43
Nsg1611
Nsg1612
Nsg40
Nsg1531
Nsg1533
I01
sg1613
g3077
sg1615
g1709
sg1616
Nsg1535
g0
(g1536
g1537
((lp3255
(lp3256
tp3257
tp3258
Rp3259
sg34
I0
sg1622
Nsg1549
I01
sg1550
Nsg1623
F1.2
sg76
g884
sg1624
I00
sg1625
I00
sg1626
Nsg1627
g1628
sg1629
g3101
sg41
Nsbsg1531
Nsg2513
I0
sg1533
I01
sg1535
g0
(g1536
g1537
((lp3260
(lp3261
tp3262
tp3263
Rp3264
sg2519
F3.5
sg2520
F0.8
sg2521
F1.0
sg2522
g0
(g2063
g2
Ntp3265
Rp3266
(dp3267
g6
g7
sg15
I01
sg2149
S'projecting'
p3268
sg14
g4
sg2067
S'butt'
p3269
sg1645
Nsg16
Nsg42
Nsg23
g24
sg2098
S'round'
p3270
sg26
I01
sg2069
Nsg29
Nsg109
g54
(g55
(I0
tp3271
g57
tp3272
Rp3273
(I1
(I2
tp3274
g64
I00
S'\x00\x00\x00\x00\x00\x00\x00\x00\x00\x00\x00\x00\x00\x00\x00\x00'
p3275
tp3276
bsg847
g54
(g55
(I0
tp3277
g57
tp3278
Rp3279
(I1
(I2
tp3280
g64
I00
S'\x00\x00\x00\x00\x00\x00\x00\x00\x00\x00\x00\x00\x00\x00\xf0?'
p3281
tp3282
bsg30
Nsg31
Nsg17
Nsg2090
g3125
sg35
I00
sg2100
Nsg36
I00
sg37
(dp3283
sg2096
Nsg39
I00
sg2146
I00
sg1610
Nsg2101
Nsg2084
F1.0
sg2129
g2130
sg2085
Nsg1627
g2487
sg2102
g0
(g2103
g2
Ntp3284
Rp3285
(dp3286
g2102
g2107
sg2108
Nsg2109
Nsg76
g0
(g842
g2
Ntp3287
Rp3288
(dp3289
g52
I1
sg81
Nsg89
g7
sg69
(dp3290
sbsg2114
I00
sg2115
g2116
sg2117
Nsg2058
g2118
sg1765
g2119
sg2120
g2122
sbsg40
Nsg2086
g2087
sg2131
I01
sg2088
g2089
sg1531
Nsg2154
F0.0
sg1533
I01
sg2132
g54
(g55
(I0
tp3291
g57
tp3292
Rp3293
(I1
(I2
I2
tp3294
g64
I00
S'\x00\x00\x00\x00\x00\x00\x00\x00\x00\x00\x00\x00\x00\x00\x00\x00\x00\x00\x00\x00\x00\x00\xf0?\x00\x00\x00\x00\x00\x00\x00\x00'
p3295
tp3296
bsg2139
g2140
sg1535
g0
(g1536
g1537
((lp3297
(lp3298
tp3299
tp3300
Rp3301
sg34
I0
sg2147
g2148
sg2070
I0
sg2151
Nsg2095
I5
sg1549
I01
sg1550
F1.0
sg2152
S'round'
p3302
sg2093
I00
sg76
g782
sg2097
Nsg2094
Nsg2092
I00
sg1626
Nsg1611
Nsg2156
g3146
sg43
g1424
sg2158
F0.8
sg41
Nsg2120
g0
(g1663
g2
Ntp3303
Rp3304
(dp3305
g1667
I00
sg1668
Nsg1669
g54
(g55
(I0
tp3306
g57
tp3307
Rp3308
(I1
(I2
I2
tp3309
g64
I01
S'\x00\x00\x00\x00\x00\x00\x00\x00\x00\x00\x00\x00\x00\x00\xf0?\x00\x00\x00\x00\x00\x00\x00\x00\x00\x00\x00\x00\x00\x00\x00\x00'
p3310
tp3311
bsg1676
I00
sg1677
F0.1111111111111111
sg1678
I180
sg1679
I00
sbsbsg1550
Nsg40
Nsg2572
g0
(g2063
g2
Ntp3312
Rp3313
(dp3314
g6
g7
sg2067
S'butt'
p3315
sg1645
Nsg26
I01
sg2069
Nsg2070
I0
sg109
Nsg847
Nsg30
Nsg17
Nsg36
I00
sg37
(dp3316
sg39
I00
sg1610
Nsg2084
F0.8
sg2085
Nsg2086
g2087
sg2088
g2089
sg1531
Nsg1533
I01
sg2090
g3161
sg34
I0
sg1549
I01
sg2092
I01
sg2093
I01
sg76
g782
sg2094
Nsg1725
F2.01
sg1627
g1628
sg2095
I5
sg14
g4
sg2096
Nsg16
Nsg42
Nsg23
g24
sg2098
S'round'
p3317
sg29
Nsg31
Nsg35
I00
sg2100
Nsg41
Nsg2101
Nsg2102
g0
(g2103
g2
Ntp3318
Rp3319
(dp3320
g2102
I1
sg2108
Nsg2109
F1.0
sg76
g0
(g77
g2
Ntp3321
Rp3322
(dp3323
g52
I2
sg81
Nsg82
g54
(g55
(I0
tp3324
g57
tp3325
Rp3326
(I1
(I3
I3
tp3327
g64
I00
S'\x00\x00\x00\x00\x00\x00\xf0?\x00\x00\x00\x00\x00\x00\x00\x00\x00\x00\x00\x00\x00\x00\x00\x00\x00\x00\x00\x00\x00\x00\x00\x00\x00\x00\x00\x00\x00\x00\xf0?\x00\x00\x00\x00\x00\x00\x00\x00\x00\x00\x00\x00\x00\x00\x00\x00\x00\x00\x00\x00\x00\x00\x00\x00\x00\x00\x00\x00\x00\x00\xf0?'
p3328
tp3329
bsg89
g7
sg69
(dp3330
sbsg2114
I00
sg2115
g2116
sg2117
Nsg2058
g2118
sg1765
g2119
sg2120
g3177
sbsg2129
g2130
sg43
Nsg40
Nsg2131
I01
sg2132
Nsg2139
g3185
sg1535
g0
(g1536
g1537
((lp3331
(lp3332
tp3333
tp3334
Rp3335
sg2146
I00
sg2147
g2148
sg2149
S'projecting'
p3336
sg2151
Nsg1550
Nsg2152
S'round'
p3337
sg2154
F3.5
sg15
I01
sg2097
Nsg1626
Nsg1611
Nsg2156
(I0
tp3338
sg2158
F1.5
sg2120
Nsbsg76
Nsg2611
g3194
sg2613
g3195
sg2615
g2140
sg2616
(g2617
I0
tp3339
sg1626
Nsg1627
g1628
sg2619
g0
(g2063
g2
Ntp3340
Rp3341
(dp3342
g6
g7
sg2067
S'butt'
p3343
sg1645
Nsg26
I01
sg2069
Nsg2070
I0
sg109
Nsg847
Nsg30
Nsg17
Nsg36
I00
sg37
(dp3344
sg39
I00
sg1610
Nsg2084
F0.8
sg2085
Nsg2086
g2087
sg2088
g2089
sg1531
Nsg1533
I01
sg2090
g3202
sg34
I0
sg1549
I01
sg2092
I01
sg2093
I01
sg76
g782
sg2094
Nsg1725
F2.01
sg1627
g1628
sg2095
I5
sg14
g4
sg2096
Nsg16
Nsg42
Nsg23
g24
sg2098
S'round'
p3345
sg29
Nsg31
Nsg35
I00
sg2100
Nsg41
Nsg2101
Nsg2102
g0
(g2103
g2
Ntp3346
Rp3347
(dp3348
g2102
I0
sg2108
Nsg2109
F1.0
sg76
g0
(g77
g2
Ntp3349
Rp3350
(dp3351
g52
I2
sg81
Nsg82
g54
(g55
(I0
tp3352
g57
tp3353
Rp3354
(I1
(I3
I3
tp3355
g64
I00
S'\x00\x00\x00\x00\x00\x00\xf0\xbf\x00\x00\x00\x00\x00\x00\x00\x00\x00\x00\x00\x00\x00\x00\x00\x00\x00\x00\x00\x00\x00\x00\x00\x00\x00\x00\x00\x00\x00\x00\xf0?\x00\x00\x00\x00\x00\x00\x00\x00\x00\x00\x00\x00\x00\x00\x00\x00\x00\x00\x00\x00\x00\x00\x00\x00\x00\x00\x00\x00\x00\x00\xf0?'
p3356
tp3357
bsg89
g7
sg69
(dp3358
sbsg2114
I00
sg2115
g2116
sg2117
Nsg2058
g2118
sg1765
g2119
sg2120
g3177
sbsg2129
g2130
sg43
Nsg40
Nsg2131
I01
sg2132
Nsg2139
g3217
sg1535
g0
(g1536
g1537
((lp3359
(lp3360
tp3361
tp3362
Rp3363
sg2146
I00
sg2147
g2148
sg2149
S'projecting'
p3364
sg2151
Nsg1550
Nsg2152
S'round'
p3365
sg2154
F3.5
sg15
I01
sg2097
Nsg1626
Nsg1611
Nsg2156
(I0
tp3366
sg2158
F1.5
sg2120
Nsbsg41
Nsbasg2790
I01
sg1524
g0
(g1525
g2
Ntp3367
Rp3368
(dp3369
g1529
g1530
sbsg1531
Nsg1533
I01
sg2794
I01
sg1535
g0
(g1536
g1537
((lp3370
(lp3371
tp3372
tp3373
Rp3374
sg34
I0
sg2800
Nsg1549
I00
sg1550
Nsg2801
g3033
sg76
Nsg2803
Vleft
p3375
sg1626
Nsg1611
Nsg2095
I15
sg2805
(lp3376
g0
(g3064
g2
Ntp3377
Rp3378
(dp3379
g6
g7
sg2228
F0.6
sg14
g4
sg2464
I01
sg15
I01
sg1549
I00
sg16
Nsg34
I0
sg42
Nsg2465
F5.4
sg2466
g1628
sg2453
I00
sg1604
F2.0
sg23
g24
sg2467
g2468
sg2416
g0
(g1588
g2
Ntp3380
Rp3381
(dp3382
g6
g7
sg15
I01
sg14
g4
sg16
Nsg1592
g0
(g1593
g2
Ntp3383
Rp3384
(dp3385
g1597
(lp3386
Vsans-serif
p3387
asg1600
Nsg1601
g1602
sg1603
g1602
sg1604
F10.0
sg1605
g1602
sg1606
g1602
sbsg42
Nsg23
g24
sg1607
Nsg26
I01
sg29
Nsg109
I0
sg847
I0
sg30
Nsg31
Nsg17
Nsg35
I00
sg36
I00
sg37
(dp3388
sg1609
Nsg39
I00
sg1610
Nsg43
Nsg1611
Nsg1612
Nsg40
Nsg1531
Nsg1533
I01
sg1613
g3077
sg1615
g1709
sg1616
Nsg1535
g0
(g1536
g1537
((lp3389
(lp3390
tp3391
tp3392
Rp3393
sg34
I0
sg1622
Nsg1549
I01
sg1550
Nsg1623
F1.2
sg76
g857
sg1624
I00
sg1625
I00
sg1626
Nsg1627
g1628
sg1629
g3083
sg41
Nsbsg26
I01
sg29
Nsg2485
I00
sg30
Nsg31
Nsg2486
g2487
sg17
Nsg2488
I00
sg35
I00
sg2489
(dp3394
sg36
I00
sg37
(dp3395
sg2492
(I0
I1
tp3396
sg39
I00
sg2494
I2
sg1610
g1566
sg2495
I01
sg43
g616
sg1611
Nsg2496
g3381
sg2497
g0
(g1588
g2
Ntp3397
Rp3398
(dp3399
g6
g7
sg15
I01
sg14
g4
sg16
Nsg1592
g0
(g1593
g2
Ntp3400
Rp3401
(dp3402
g1597
(lp3403
Vsans-serif
p3404
asg1600
Nsg1601
g1602
sg1603
g1602
sg1604
F10.0
sg1605
g1602
sg1606
g1602
sbsg42
Nsg23
g24
sg1607
Nsg26
I01
sg29
Nsg109
I0
sg847
I1
sg30
Nsg31
Nsg17
Nsg35
I00
sg36
I00
sg37
(dp3405
sg1609
Nsg39
I00
sg1610
Nsg43
Nsg1611
Nsg1612
Nsg40
Nsg1531
Nsg1533
I01
sg1613
g3077
sg1615
g1709
sg1616
Nsg1535
g0
(g1536
g1537
((lp3406
(lp3407
tp3408
tp3409
Rp3410
sg34
I0
sg1622
Nsg1549
I01
sg1550
Nsg1623
F1.2
sg76
g893
sg1624
I00
sg1625
I00
sg1626
Nsg1627
g1628
sg1629
g3101
sg41
Nsbsg1531
Nsg2513
I0
sg1533
I01
sg1535
g0
(g1536
g1537
((lp3411
(lp3412
tp3413
tp3414
Rp3415
sg2519
F3.4
sg2520
F0.8
sg2521
F1.0
sg2522
g0
(g2063
g2
Ntp3416
Rp3417
(dp3418
g6
g7
sg15
I01
sg2149
S'projecting'
p3419
sg14
g4
sg2067
S'butt'
p3420
sg1645
Nsg16
Nsg42
Nsg23
g24
sg2098
S'round'
p3421
sg26
I01
sg2069
Nsg29
Nsg109
g54
(g55
(I0
tp3422
g57
tp3423
Rp3424
(I1
(I2
tp3425
g64
I00
S'\x00\x00\x00\x00\x00\x00\x00\x00\x00\x00\x00\x00\x00\x00\x00\x00'
p3426
tp3427
bsg847
g54
(g55
(I0
tp3428
g57
tp3429
Rp3430
(I1
(I2
tp3431
g64
I00
S'\x00\x00\x00\x00\x00\x00\x00\x00\x00\x00\x00\x00\x00\x00\xf0?'
p3432
tp3433
bsg30
Nsg31
Nsg17
Nsg2090
g3125
sg35
I00
sg2100
Nsg36
I00
sg37
(dp3434
sg2096
Nsg39
I00
sg2146
I00
sg1610
Nsg2101
Nsg2084
F1.0
sg2129
g2130
sg2085
Nsg1627
g2487
sg2102
g0
(g2103
g2
Ntp3435
Rp3436
(dp3437
g2102
g2107
sg2108
Nsg2109
Nsg76
g0
(g842
g2
Ntp3438
Rp3439
(dp3440
g52
I1
sg81
Nsg89
g7
sg69
(dp3441
sbsg2114
I00
sg2115
g2116
sg2117
Nsg2058
g2118
sg1765
g2119
sg2120
g2122
sbsg40
Nsg2086
g2087
sg2131
I01
sg2088
g2089
sg1531
Nsg2154
F0.0
sg1533
I01
sg2132
g54
(g55
(I0
tp3442
g57
tp3443
Rp3444
(I1
(I2
I2
tp3445
g64
I00
S'\x00\x00\x00\x00\x00\x00\x00\x00\x00\x00\x00\x00\x00\x00\x00\x00\x00\x00\x00\x00\x00\x00\xf0?\x00\x00\x00\x00\x00\x00\x00\x00'
p3446
tp3447
bsg2139
g2140
sg1535
g0
(g1536
g1537
((lp3448
(lp3449
tp3450
tp3451
Rp3452
sg34
I0
sg2147
g2148
sg2070
I0
sg2151
Nsg2095
I5
sg1549
I01
sg1550
F1.0
sg2152
S'round'
p3453
sg2093
I00
sg76
g782
sg2097
Nsg2094
Nsg2092
I00
sg1626
Nsg1611
Nsg2156
g3146
sg43
g406
sg2158
F0.8
sg41
Nsg2120
g0
(g1663
g2
Ntp3454
Rp3455
(dp3456
g1667
I00
sg1668
Nsg1669
g54
(g55
(I0
tp3457
g57
tp3458
Rp3459
(I1
(I2
I2
tp3460
g64
I01
S'\x00\x00\x00\x00\x00\x00\x00\x00\x00\x00\x00\x00\x00\x00\xf0?\x00\x00\x00\x00\x00\x00\x00\x00\x00\x00\x00\x00\x00\x00\x00\x00'
p3461
tp3462
bsg1676
I00
sg1677
F0.1111111111111111
sg1678
I180
sg1679
I00
sbsbsg1550
Nsg40
Nsg2572
g0
(g2063
g2
Ntp3463
Rp3464
(dp3465
g6
g7
sg2067
S'butt'
p3466
sg1645
Nsg26
I01
sg2069
Nsg2070
I0
sg109
Nsg847
Nsg30
Nsg17
Nsg36
I00
sg37
(dp3467
sg39
I00
sg1610
Nsg2084
F0.6
sg2085
Nsg2086
g2087
sg2088
g2089
sg1531
Nsg1533
I01
sg2090
g3161
sg34
I0
sg1549
I01
sg2092
I01
sg2093
I01
sg76
g782
sg2094
Nsg1725
I2
sg1627
g1628
sg2095
I5
sg14
g4
sg2096
Nsg16
Nsg42
Nsg23
g24
sg2098
S'round'
p3468
sg29
Nsg31
Nsg35
I00
sg2100
Nsg41
Nsg2101
Nsg2102
g0
(g2103
g2
Ntp3469
Rp3470
(dp3471
g2102
I1
sg2108
Nsg2109
F1.0
sg76
g0
(g77
g2
Ntp3472
Rp3473
(dp3474
g52
I2
sg81
Nsg82
g54
(g55
(I0
tp3475
g57
tp3476
Rp3477
(I1
(I3
I3
tp3478
g64
I00
S'\x00\x00\x00\x00\x00\x00\xf0?\x00\x00\x00\x00\x00\x00\x00\x00\x00\x00\x00\x00\x00\x00\x00\x00\x00\x00\x00\x00\x00\x00\x00\x00\x00\x00\x00\x00\x00\x00\xf0?\x00\x00\x00\x00\x00\x00\x00\x00\x00\x00\x00\x00\x00\x00\x00\x00\x00\x00\x00\x00\x00\x00\x00\x00\x00\x00\x00\x00\x00\x00\xf0?'
p3479
tp3480
bsg89
g7
sg69
(dp3481
sbsg2114
I00
sg2115
g2116
sg2117
Nsg2058
g2118
sg1765
g2119
sg2120
g3177
sbsg2129
g2130
sg43
Nsg40
Nsg2131
I01
sg2132
Nsg2139
g3185
sg1535
g0
(g1536
g1537
((lp3482
(lp3483
tp3484
tp3485
Rp3486
sg2146
I00
sg2147
g2148
sg2149
S'projecting'
p3487
sg2151
Nsg1550
Nsg2152
S'round'
p3488
sg2154
F2.0
sg15
I01
sg2097
Nsg1626
Nsg1611
Nsg2156
(I0
tp3489
sg2158
F1.5
sg2120
Nsbsg76
Nsg2611
g3194
sg2613
g3195
sg2615
g2140
sg2616
(g2617
I0
tp3490
sg1626
Nsg1627
g1628
sg2619
g0
(g2063
g2
Ntp3491
Rp3492
(dp3493
g6
g7
sg2067
S'butt'
p3494
sg1645
Nsg26
I01
sg2069
Nsg2070
I0
sg109
Nsg847
Nsg30
Nsg17
Nsg36
I00
sg37
(dp3495
sg39
I00
sg1610
Nsg2084
F0.6
sg2085
Nsg2086
g2087
sg2088
g2089
sg1531
Nsg1533
I01
sg2090
g3202
sg34
I0
sg1549
I01
sg2092
I01
sg2093
I01
sg76
g782
sg2094
Nsg1725
I2
sg1627
g1628
sg2095
I5
sg14
g4
sg2096
Nsg16
Nsg42
Nsg23
g24
sg2098
S'round'
p3496
sg29
Nsg31
Nsg35
I00
sg2100
Nsg41
Nsg2101
Nsg2102
g0
(g2103
g2
Ntp3497
Rp3498
(dp3499
g2102
I0
sg2108
Nsg2109
F1.0
sg76
g0
(g77
g2
Ntp3500
Rp3501
(dp3502
g52
I2
sg81
Nsg82
g54
(g55
(I0
tp3503
g57
tp3504
Rp3505
(I1
(I3
I3
tp3506
g64
I00
S'\x00\x00\x00\x00\x00\x00\xf0\xbf\x00\x00\x00\x00\x00\x00\x00\x00\x00\x00\x00\x00\x00\x00\x00\x00\x00\x00\x00\x00\x00\x00\x00\x00\x00\x00\x00\x00\x00\x00\xf0?\x00\x00\x00\x00\x00\x00\x00\x00\x00\x00\x00\x00\x00\x00\x00\x00\x00\x00\x00\x00\x00\x00\x00\x00\x00\x00\x00\x00\x00\x00\xf0?'
p3507
tp3508
bsg89
g7
sg69
(dp3509
sbsg2114
I00
sg2115
g2116
sg2117
Nsg2058
g2118
sg1765
g2119
sg2120
g3177
sbsg2129
g2130
sg43
Nsg40
Nsg2131
I01
sg2132
Nsg2139
g3217
sg1535
g0
(g1536
g1537
((lp3510
(lp3511
tp3512
tp3513
Rp3514
sg2146
I00
sg2147
g2148
sg2149
S'projecting'
p3515
sg2151
Nsg1550
Nsg2152
S'round'
p3516
sg2154
F2.0
sg15
I01
sg2097
Nsg1626
Nsg1611
Nsg2156
(I0
tp3517
sg2158
F1.5
sg2120
Nsbsg41
Nsbasg41
Nsg2948
(dp3518
g2450
I01
sg2451
I01
sg2452
I00
sg2454
I00
ssg2950
I01
sbsS'_axisbelow'
p3519
S'line'
p3520
sg15
I01
sg2173
(lp3521
g2065
asg2155
I1
sS'spines'
p3522
ccollections
OrderedDict
p3523
((lp3524
(lp3525
Vleft
p3526
ag0
(cmatplotlib.spines
Spine
p3527
g2
Ntp3528
Rp3529
(dp3530
g6
g7
sg2398
I00
sg2229
I01
sg14
g4
sS'_bounds'
p3531
Nsg15
I01
sg16
Nsg42
Nsg23
g24
sg1626
Nsg26
I01
sg2376
g2993
sg2231
g0
(g842
g2
Ntp3532
Rp3533
(dp3534
g52
I1
sg81
Nsg89
g7
sg69
(dp3535
sbsg2236
(g1746
(g64
S'\x00\x00\x00\x00\x00\x00\x00\x00'
p3536
tp3537
Rp3538
g1746
(g64
S'\x00\x00\x00\x00\x00\x00\x00\x00'
p3539
tp3540
Rp3541
g1746
(g64
S'\x00\x00\x00\x00\x00\x00\x00\x00'
p3542
tp3543
Rp3544
I1
tp3545
sg29
Nsg30
Nsg1702
g1628
sg17
Nsg35
I00
sg36
I00
sg37
(dp3546
sg2265
(NNtp3547
sg2312
(Voutward
p3548
F0.0
tp3549
sg39
I00
sg1734
Nsg1533
I01
sg2158
F0.8
sS'_patch_type'
p3550
Vline
p3551
sg40
Nsg1745
g3545
sg2244
Nsg2131
I01
sg2245
Nsg1760
Vnone
p3552
sg1531
Nsg2189
g2237
sg1765
g2256
sS'_patch_transform'
p3553
g0
(g842
g2
Ntp3554
Rp3555
(dp3556
g52
I1
sg81
Nsg89
g7
sg69
(dp3557
sbsg2139
g2257
sg1535
g0
(g1536
g1537
((lp3558
(lp3559
tp3560
tp3561
Rp3562
sg34
I0
sS'_spine_transform'
p3563
(Videntity
p3564
g0
(g842
g2
Ntp3565
Rp3566
(dp3567
g52
I1
sg81
Nsg89
g7
sg69
(dp3568
sbtp3569
sg1549
I01
sg1550
NsS'spine_type'
p3570
g3526
sg76
g782
sg43
Nsg1725
F2.5
sg2058
Vprojecting
p3571
sg1611
Nsg31
Nsg1610
g1566
sg41
Nsg2120
g0
(g1663
g2
Ntp3572
Rp3573
(dp3574
g1667
I00
sg1668
Nsg1669
g54
(g55
(I0
tp3575
g57
tp3576
Rp3577
(I1
(I2
I2
tp3578
g64
I00
S'\x00\x00\x00\x00\x00\x00\x00\x00\x00\x00\x00\x00\x00\x00*@\x00\x00\x00\x00\x00\x00\x00\x00\x00\x00\x00\x00\x00\x00*@'
p3579
tp3580
bsg1676
I00
sg1677
F0.1111111111111111
sg1678
I1
sg1679
I00
sbsbaa(lp3581
Vright
p3582
ag0
(g3527
g2
Ntp3583
Rp3584
(dp3585
g6
g7
sg2398
I00
sg2229
I01
sg14
g4
sg3531
Nsg15
I01
sg16
Nsg42
Nsg23
g24
sg1626
Nsg26
I01
sg2376
g2993
sg2231
g0
(g842
g2
Ntp3586
Rp3587
(dp3588
g52
I1
sg81
Nsg89
g7
sg69
(dp3589
sbsg2236
g3545
sg29
Nsg30
Nsg1702
g1628
sg17
Nsg35
I00
sg36
I00
sg37
(dp3590
sg2265
(NNtp3591
sg2312
g3549
sg39
I00
sg1734
Nsg1533
I01
sg2158
F0.8
sg3550
g3551
sg40
Nsg1745
g3545
sg2244
Nsg2131
I01
sg2245
Nsg1760
g3552
sg1531
Nsg2189
g2237
sg1765
g2256
sg3553
g0
(g842
g2
Ntp3592
Rp3593
(dp3594
g52
I1
sg81
Nsg89
g7
sg69
(dp3595
sbsg2139
g2257
sg1535
g0
(g1536
g1537
((lp3596
(lp3597
tp3598
tp3599
Rp3600
sg34
I0
sg3563
(g3564
g0
(g842
g2
Ntp3601
Rp3602
(dp3603
g52
I1
sg81
Nsg89
g7
sg69
(dp3604
sbtp3605
sg1549
I01
sg1550
Nsg3570
g3582
sg76
g782
sg43
Nsg1725
F2.5
sg2058
g3571
sg1611
Nsg31
Nsg1610
g1566
sg41
Nsg2120
g0
(g1663
g2
Ntp3606
Rp3607
(dp3608
g1667
I00
sg1668
Nsg1669
g54
(g55
(I0
tp3609
g57
tp3610
Rp3611
(I1
(I2
I2
tp3612
g64
I00
S'\x00\x00\x00\x00\x00\x00\xf0?\x00\x00\x00\x00\x00\x00*@\x00\x00\x00\x00\x00\x00\xf0?\x00\x00\x00\x00\x00\x00*@'
p3613
tp3614
bsg1676
I00
sg1677
F0.1111111111111111
sg1678
I1
sg1679
I00
sbsbaa(lp3615
Vbottom
p3616
ag0
(g3527
g2
Ntp3617
Rp3618
(dp3619
g6
g7
sg2398
I00
sg2229
I01
sg14
g4
sg3531
Nsg15
I01
sg16
Nsg42
Nsg23
g24
sg1626
Nsg26
I01
sg2376
g2344
sg2231
g0
(g842
g2
Ntp3620
Rp3621
(dp3622
g52
I1
sg81
Nsg89
g7
sg69
(dp3623
sbsg2236
g3545
sg29
Nsg30
Nsg1702
g1628
sg17
Nsg35
I00
sg36
I00
sg37
(dp3624
sg2265
(NNtp3625
sg2312
g3549
sg39
I00
sg1734
Nsg1533
I01
sg2158
F0.8
sg3550
g3551
sg40
Nsg1745
g3545
sg2244
Nsg2131
I01
sg2245
Nsg1760
g3552
sg1531
Nsg2189
g2237
sg1765
g2256
sg3553
g0
(g842
g2
Ntp3626
Rp3627
(dp3628
g52
I1
sg81
Nsg89
g7
sg69
(dp3629
sbsg2139
g2257
sg1535
g0
(g1536
g1537
((lp3630
(lp3631
tp3632
tp3633
Rp3634
sg34
I0
sg3563
(g3564
g0
(g842
g2
Ntp3635
Rp3636
(dp3637
g52
I1
sg81
Nsg89
g7
sg69
(dp3638
sbtp3639
sg1549
I01
sg1550
Nsg3570
g3616
sg76
g107
sg43
Nsg1725
F2.5
sg2058
g3571
sg1611
Nsg31
Nsg1610
g1566
sg41
Nsg2120
g0
(g1663
g2
Ntp3640
Rp3641
(dp3642
g1667
I00
sg1668
Nsg1669
g54
(g55
(I0
tp3643
g57
tp3644
Rp3645
(I1
(I2
I2
tp3646
g64
I00
S'\x00\x00\x00\x00\x00\x00*@\x00\x00\x00\x00\x00\x00\x00\x00\x00\x00\x00\x00\x00\x00*@\x00\x00\x00\x00\x00\x00\x00\x00'
p3647
tp3648
bsg1676
I00
sg1677
F0.1111111111111111
sg1678
I1
sg1679
I00
sbsbaa(lp3649
Vtop
p3650
ag0
(g3527
g2
Ntp3651
Rp3652
(dp3653
g6
g7
sg2398
I00
sg2229
I01
sg14
g4
sg3531
Nsg15
I01
sg16
Nsg42
Nsg23
g24
sg1626
Nsg26
I01
sg2376
g2344
sg2231
g0
(g842
g2
Ntp3654
Rp3655
(dp3656
g52
I1
sg81
Nsg89
g7
sg69
(dp3657
sbsg2236
g3545
sg29
Nsg30
Nsg1702
g1628
sg17
Nsg35
I00
sg36
I00
sg37
(dp3658
sg2265
(NNtp3659
sg2312
g3549
sg39
I00
sg1734
Nsg1533
I01
sg2158
F0.8
sg3550
g3551
sg40
Nsg1745
g3545
sg2244
Nsg2131
I01
sg2245
Nsg1760
g3552
sg1531
Nsg2189
g2237
sg1765
g2256
sg3553
g0
(g842
g2
Ntp3660
Rp3661
(dp3662
g52
I1
sg81
Nsg89
g7
sg69
(dp3663
sbsg2139
g2257
sg1535
g0
(g1536
g1537
((lp3664
(lp3665
tp3666
tp3667
Rp3668
sg34
I0
sg3563
(g3564
g0
(g842
g2
Ntp3669
Rp3670
(dp3671
g52
I1
sg81
Nsg89
g7
sg69
(dp3672
sbtp3673
sg1549
I01
sg1550
Nsg3570
g3650
sg76
g107
sg43
Nsg1725
F2.5
sg2058
g3571
sg1611
Nsg31
Nsg1610
g1566
sg41
Nsg2120
g0
(g1663
g2
Ntp3674
Rp3675
(dp3676
g1667
I00
sg1668
Nsg1669
g54
(g55
(I0
tp3677
g57
tp3678
Rp3679
(I1
(I2
I2
tp3680
g64
I00
S'\x00\x00\x00\x00\x00\x00*@\x00\x00\x00\x00\x00\x00\xf0?\x00\x00\x00\x00\x00\x00*@\x00\x00\x00\x00\x00\x00\xf0?'
p3681
tp3682
bsg1676
I00
sg1677
F0.1111111111111111
sg1678
I1
sg1679
I00
sbsbaatp3683
Rp3684
sS'_anchor'
p3685
VC
p3686
sg1626
Nsg1611
Nsbtp3687
tp3688
asS'_ind'
p3689
I1
sS'_pos'
p3690
I0
sbsg76
Nsg2173
(lp3691
sg2223
g0
(g2224
g2
Ntp3692
Rp3693
(dp3694
g6
g7
sg2228
I1
sg2229
I01
sg14
g4
sg15
I01
sg16
Nsg42
Nsg23
g24
sg1626
Nsg2230
I0
sg26
I01
sg2231
g0
(g842
g2
Ntp3695
Rp3696
(dp3697
g52
I1
sg81
Nsg89
g7
sg69
(dp3698
sbsg2236
g2255
sg2238
F0.0
sg29
Nsg30
Nsg1702
g2190
sg17
Nsg2240
I1
sg35
I00
sg36
I00
sg37
(dp3699
sg2242
g0
(g842
g2
Ntp3700
Rp3701
(dp3702
g52
I1
sg81
Nsg89
g7
sg69
(dp3703
sbsg39
I00
sg1734
Nsg1533
I01
sg2158
F0.0
sg43
Nsg2243
I1
sg40
Nsg1745
g2255
sg2244
Nsg2131
I00
sg2245
Nsg1760
g2190
sg1531
Nsg2189
g2255
sg1765
g2256
sg2139
g2257
sg1535
g0
(g1536
g1537
((lp3704
(lp3705
tp3706
tp3707
Rp3708
sg34
I0
sg2263
I1
sg2264
I0
sg1549
I01
sg1550
Nsg76
g144
sg2265
(NNtp3709
sg2058
g2267
sg1611
Nsg31
Nsg1610
Nsg41
NsbsS'subplotpars'
p3710
g0
(cmatplotlib.figure
SubplotParams
p3711
g2
Ntp3712
Rp3713
(dp3714
g2282
F0.9
sg2284
F0.11
sg2285
F0.88
sg2286
F0.2
sS'validate'
p3715
I01
sg2288
F0.2
sg2290
F0.125
sbsg1626
Nsg1611
NsS'_align_ylabel_grp'
p3716
g0
(g1517
g2
Ntp3717
Rp3718
(dp3719
g1521
(dp3720
sbsS'transFigure'
p3721
g144
sS'_dpi'
p3722
F100.0
sg2191
g73
sb.